0x546cc	0	$d	$d
0x546d0	0	$a	$a
0x54a11	24	JNI_OnLoad	JNI_OnLoad
0x54a29	76	getJNIEnv	getJNIEnv
0x54a75	48	Java_com_gamevil_nexus2_Natives_InitializeJNIGlobalRef	Java_com_gamevil_nexus2_Natives_InitializeJNIGlobalRef
0x54aa5	2	Java_com_gamevil_nexus2_Natives_NativeNetTimeOut	Java_com_gamevil_nexus2_Natives_NativeNetTimeOut
0x54aa9	24	Java_com_gamevil_nexus2_Natives_NativeIsNexusOne	Java_com_gamevil_nexus2_Natives_NativeIsNexusOne
0x54ac1	40	Java_com_gamevil_nexus2_Natives_NativeResponseIAP	Java_com_gamevil_nexus2_Natives_NativeResponseIAP
0x54ae9	24	saveCurrenUIStatus	saveCurrenUIStatus
0x54b01	32	_ZN7_JNIEnv20CallStaticVoidMethodEP7_jclassP10_jmethodIDz	_JNIEnv::CallStaticVoidMethod()
0x54b21	88	changeUIStatus	changeUIStatus
0x54b79	32	_ZN7_JNIEnv19CallStaticIntMethodEP7_jclassP10_jmethodIDz	_JNIEnv::CallStaticIntMethod()
0x54b99	32	_ZN7_JNIEnv22CallStaticObjectMethodEP7_jclassP10_jmethodIDz	_JNIEnv::CallStaticObjectMethod()
0x54bb9	32	freeGLObject	freeGLObject
0x54bd9	10	Java_com_gamevil_nexus2_Natives_NativeAsyncTimerCallBack	Java_com_gamevil_nexus2_Natives_NativeAsyncTimerCallBack
0x54be5	8	Java_com_gamevil_nexus2_Natives_NativeResumeClet	Java_com_gamevil_nexus2_Natives_NativeResumeClet
0x54bed	8	Java_com_gamevil_nexus2_Natives_NativePauseClet	Java_com_gamevil_nexus2_Natives_NativePauseClet
0x54bf5	104	Java_com_gamevil_nexus2_Natives_handleCletEvent	Java_com_gamevil_nexus2_Natives_handleCletEvent
0x54c5d	60	Java_com_gamevil_nexus2_Natives_NativeInitWithBufferSize	Java_com_gamevil_nexus2_Natives_NativeInitWithBufferSize
0x54c99	44	deleteDeviceInfo	deleteDeviceInfo
0x54cc5	36	glDeinit	glDeinit
0x54ce9	32	Java_com_gamevil_nexus2_Natives_NativeDestroyClet	Java_com_gamevil_nexus2_Natives_NativeDestroyClet
0x54d09	68	getDeviceInfo	getDeviceInfo
0x54d4d	236	glDrawFrame	glDrawFrame
0x54e39	180	updateScreenBuffer	updateScreenBuffer
0x54eed	96	Java_com_gamevil_nexus2_Natives_NativeInitDeviceInfo	Java_com_gamevil_nexus2_Natives_NativeInitDeviceInfo
0x54f4d	1140	glResize	glResize
0x553c1	12	Java_com_gamevil_nexus2_Natives_NativeResize	Java_com_gamevil_nexus2_Natives_NativeResize
0x553cd	100	openStoreWithProductId	openStoreWithProductId
0x55431	84	showMylSButton	showMylSButton
0x55485	84	blinkSButton	blinkSButton
0x554d9	84	setFrameSpeed	setFrameSpeed
0x5552d	84	saveGLOptionLinear	saveGLOptionLinear
0x55581	100	openUrl	openUrl
0x555e5	128	getAbsolutFilePath	getAbsolutFilePath
0x55665	164	requestIAP	requestIAP
0x55709	68	hideComponent	hideComponent
0x5574d	68	showComponent	showComponent
0x55791	68	hideTitleComponent	hideTitleComponent
0x557d5	68	showTitleComponent	showTitleComponent
0x55819	68	hideLoadingDialog	hideLoadingDialog
0x5585d	68	showLoadingDialog	showLoadingDialog
0x558a1	84	changeToPreviousUIStatus	changeToPreviousUIStatus
0x558f5	84	androidVibrator	androidVibrator
0x55949	68	stopAndroidSound	stopAndroidSound
0x5598d	108	playAndroidSound	playAndroidSound
0x559f9	84	sendAndroidEvent	sendAndroidEvent
0x55a4d	68	clearPlayerName	clearPlayerName
0x55a91	100	AsyncTimerSet	AsyncTimerSet
0x55af5	104	getGLOptionLinear	getGLOptionLinear
0x55b5d	308	glInit	glInit
0x55c91	44	Java_com_gamevil_nexus2_Natives_NativeRender	Java_com_gamevil_nexus2_Natives_NativeRender
0x55cbd	124	AnalyticsTrackEvent	AnalyticsTrackEvent
0x55d39	100	AnalyticsTrackPageView	AnalyticsTrackPageView
0x55d9d	76	netBillcomSocketClose	netBillcomSocketClose
0x55de9	140	netBillcomSocketWrite	netBillcomSocketWrite
0x55e75	120	netBillcomSocketConnect	netBillcomSocketConnect
0x55eed	76	netSocket	netSocket
0x55f39	76	netConnect	netConnect
0x55f85	76	isNetAvailable	isNetAvailable
0x55fd1	84	isFileExist	isFileExist
0x56025	104	isAssetExist	isAssetExist
0x5608d	104	readAssets	readAssets
0x560f5	144	getTextFromKeyboard	getTextFromKeyboard
0x56185	164	netBillcomSocketRead	netBillcomSocketRead
0x56229	144	getDeviceModel	getDeviceModel
0x562b9	144	getDeviceID	getDeviceID
0x56349	144	getPlayerName	getPlayerName
0x563d9	128	getVersion	getVersion
0x56459	2	_Z11PrintBufferPhii	PrintBuffer()
0x5645d	2	MC_netClose	MC_netClose
0x56461	2	MC_netSocket	MC_netSocket
0x56465	4	MC_netSetBillcommGWUrl	MC_netSetBillcommGWUrl
0x56469	4	MC_netGetBillcommGWUrl	MC_netGetBillcommGWUrl
0x5646d	12	MC_netSetReadCB	MC_netSetReadCB
0x56479	12	MC_netSetWriteCB	MC_netSetWriteCB
0x56485	10	MC_netBillSocketClose	MC_netBillSocketClose
0x56491	8	MC_netSocketClose	MC_netSocketClose
0x56499	12	MC_netBillSocketRead	MC_netBillSocketRead
0x564a5	12	MC_netBillSocketWrite	MC_netBillSocketWrite
0x564b1	36	MC_netBillSocketConnect	MC_netBillSocketConnect
0x564d5	18	MC_netBillSocket	MC_netBillSocket
0x564e9	122	MC_netSocketRead	MC_netSocketRead
0x56565	124	MC_netSocketWrite	MC_netSocketWrite
0x565e1	120	setTimeeOut	setTimeeOut
0x56659	152	MC_netSocketConnect	MC_netSocketConnect
0x566f1	8	_Z18connectedToNetworkv	connectedToNetwork()
0x566f9	30	MC_netConnect	MC_netConnect
0x56719	36	_Z14PrintSeperatori	PrintSeperator()
0x5673d	2	_ZN6CGsApp15EvChargeSuccessEi	CGsApp::EvChargeSuccess()
0x56741	2	_ZN6CGsApp12EvChargeFailEi	CGsApp::EvChargeFail()
0x56745	2	_ZN6CGsApp14EvBackKeyPressEv	CGsApp::EvBackKeyPress()
0x56749	2	__cxa_pure_virtual	__cxa_pure_virtual
0x5674d	2	__cxa_end_cleanup	__cxa_end_cleanup
0x56751	40	_ZN6CGsApp11SetRunnableEi	CGsApp::SetRunnable()
0x56779	60	_ZN6CGsApp10RunnableCBEPS_	CGsApp::RunnableCB()
0x567b5	92	_ZN6CGsApp7OnEventEiii	CGsApp::OnEvent()
0x56811	36	_ZN6CGsAppD1Ev	CGsApp()
0x56835	18	_ZN6CGsAppD0Ev	CGsApp()
0x56849	36	_ZN6CGsAppD2Ev	CGsApp()
0x5686d	48	_ZN9CGcxFrameC2Ev	CGcxFrame()
0x5689d	56	_ZN6CGsAppC1Ev	CGsApp()
0x568d5	56	_ZN6CGsAppC2Ev	CGsApp()
0x5690d	36	_ZN11CGsAutomataD2Ev	CGsAutomata()
0x56931	36	_ZN11CGsAutomataD1Ev	CGsAutomata()
0x56955	44	_ZN11CGsAutomata17IsCursorDrawFrameEv	CGsAutomata::IsCursorDrawFrame()
0x56981	24	_ZN11CGsAutomata20GetCurrentModeStringEv	CGsAutomata::GetCurrentModeString()
0x56999	36	_ZN12CGsSingletonI11CGsAutomataED1Ev	CGsSingleton()
0x569bd	258	_ZN11CGsAutomata8DrawTextEiiP8CGxBFontlb11EnumGsAligni	CGsAutomata::DrawText()
0x56ac1	248	_ZN11CGsAutomata13DrawInputModeEiiP8CGxBFontlPc	CGsAutomata::DrawInputMode()
0x56bb9	60	_ZN11CGsAutomata9AddLetterEPch	CGsAutomata::AddLetter()
0x56bf5	58	_ZN11CGsAutomata14AutoCompletionEPc	CGsAutomata::AutoCompletion()
0x56c31	268	_ZN11CGsAutomata16DeleteLastLetterEv	CGsAutomata::DeleteLastLetter()
0x56d3d	30	_ZN11CGsAutomata12CutOffStringEv	CGsAutomata::CutOffString()
0x56d5d	28	_ZN11CGsAutomata13DeleteTextAllEv	CGsAutomata::DeleteTextAll()
0x56d79	580	_ZN11CGsAutomata14HandleInputSubEii	CGsAutomata::HandleInputSub()
0x56fbd	130	_ZN11CGsAutomata11HandleInputEii	CGsAutomata::HandleInput()
0x57041	176	_ZN11CGsAutomata14SetCurrentModeE13EnumGsKeyModebb	CGsAutomata::SetCurrentMode()
0x570f1	100	_ZN11CGsAutomata17SetCurrentModePreEv	CGsAutomata::SetCurrentModePre()
0x57155	102	_ZN11CGsAutomata18SetCurrentModeNextEv	CGsAutomata::SetCurrentModeNext()
0x571bd	120	_ZN11CGsAutomata7SetTextEPc	CGsAutomata::SetText()
0x57235	168	_ZN11CGsAutomata7InitialEv	CGsAutomata::Initial()
0x572dd	56	_ZN11CGsAutomataC1Eh	CGsAutomata()
0x57315	56	_ZN11CGsAutomataC2Eh	CGsAutomata()
0x5734d	18	_ZN11CGsAutomataD0Ev	CGsAutomata()
0x57361	44	_ZN12CGsSingletonI11CGsAutomataED0Ev	CGsSingleton()
0x5738d	26	_ZN16CGsCertification12PointerPressE8TGXPOINT	CGsCertification::PointerPress()
0x573a9	6	_ZN16CGsCertification14PointerReleaseE8TGXPOINT	CGsCertification::PointerRelease()
0x573b1	14	_ZN16CGsCertification12SetTouchRectER7TGXRECTiiii	CGsCertification::SetTouchRect()
0x573c1	76	_ZN16CGsCertification14ClearTouchRectEv	CGsCertification::ClearTouchRect()
0x5740d	86	_ZN16CGsCertification14IsPointerOnBoxE8TGXPOINT7TGXRECT	CGsCertification::IsPointerOnBox()
0x57465	16	_ZN16CGsCertification12ClearPointerEv	CGsCertification::ClearPointer()
0x57475	8	_ZN16CGsCertification8KeyPressEi	CGsCertification::KeyPress()
0x5747d	8	_ZN16CGsCertification12StartProcessEv	CGsCertification::StartProcess()
0x57485	116	_ZN16CGsCertification6GetKeyEv	CGsCertification::GetKey()
0x574f9	2	_ZN16CGsCertification10EndProcessEv	CGsCertification::EndProcess()
0x574fd	50	_ZN16CGsCertification7Str2IntEc	CGsCertification::Str2Int()
0x57531	40	_ZN16CGsCertification11CryptographEPvii	CGsCertification::Cryptograph()
0x57559	18	_ZN16CGsCertification18IsConnectedNetworkEv	CGsCertification::IsConnectedNetwork()
0x5756d	2	_ZN16CGsCertification13OnConnectDoneEv	CGsCertification::OnConnectDone()
0x57571	2	_ZN16CGsCertification10OnSendDoneEv	CGsCertification::OnSendDone()
0x57575	40	_ZN12CGsNetBuffer3SetEPKvi	CGsNetBuffer::Set()
0x5759d	46	_ZN16CGsCertification20Send_AU_CS_SMS_AGREEEv	CGsCertification::Send_AU_CS_SMS_AGREE()
0x575cd	164	_ZN16CGsCertification19Send_AU_CS_APP_AUTHEv	CGsCertification::Send_AU_CS_APP_AUTH()
0x57671	30	_ZN16CGsCertification8SendBodyEt	CGsCertification::SendBody()
0x57691	10	_ZN16CGsCertification12CloseNetworkEv	CGsCertification::CloseNetwork()
0x5769d	56	_ZN16CGsCertification9RetryProcEv	CGsCertification::RetryProc()
0x576d5	28	_ZN16CGsCertification14OnConnectErrorEi	CGsCertification::OnConnectError()
0x576f1	8	_ZN16CGsCertification7SuspendEv	CGsCertification::Suspend()
0x576f9	150	_ZN16CGsCertification11GetStrColorEPcRiS1_S1_	CGsCertification::GetStrColor()
0x57791	180	_ZN16CGsCertification17SaveCertificationEPcS0_	CGsCertification::SaveCertification()
0x57845	88	_ZN16CGsCertification23SaveCertiFileWhenFailedEv	CGsCertification::SaveCertiFileWhenFailed()
0x5789d	36	_ZN16CGsCertification13NextRetryProcEv	CGsCertification::NextRetryProc()
0x578c1	8	_ZN16CGsCertification9OnTimeOutEv	CGsCertification::OnTimeOut()
0x578c9	8	_ZN16CGsCertification7OnErrorEii	CGsCertification::OnError()
0x578d1	188	_ZN16CGsCertification10OnRecvDoneEv	CGsCertification::OnRecvDone()
0x5798d	144	_ZN16CGsCertification17LoadCertificationEv	CGsCertification::LoadCertification()
0x57a1d	504	_ZN16CGsCertification13DrawTextPopupEPA64_ci9tagM_Rect	CGsCertification::DrawTextPopup()
0x57c15	64	_ZN16CGsCertification19CheckValidCertiFileEv	CGsCertification::CheckValidCertiFile()
0x57c55	28	_ZN16CGsCertification6ResumeEv	CGsCertification::Resume()
0x57c71	1144	_ZN16CGsCertification6UpdateEv	CGsCertification::Update()
0x580e9	452	_ZN16CGsCertification7InitialEPKcS1_S1_S1_S1_iiS1_12EnumSaleCodeS1_	CGsCertification::Initial()
0x582ad	72	_ZN16CGsCertificationD1Ev	CGsCertification()
0x582f5	18	_ZN16CGsCertificationD0Ev	CGsCertification()
0x58309	72	_ZN16CGsCertificationD2Ev	CGsCertification()
0x58351	64	_ZN16CGsCertificationC1Ev	CGsCertification()
0x58391	64	_ZN16CGsCertificationC2Ev	CGsCertification()
0x583d1	1232	_ZN16CGsCertification14DrawCertiFrameEab	CGsCertification::DrawCertiFrame()
0x588a1	108	_ZN16CGsCertification19DrawCertiRetryPopupEv	CGsCertification::DrawCertiRetryPopup()
0x5890d	112	_ZN16CGsCertification22DrawCertiCompletePopupEv	CGsCertification::DrawCertiCompletePopup()
0x5897d	140	_ZN16CGsCertification24DrawCertiSMSConfirmPopupEv	CGsCertification::DrawCertiSMSConfirmPopup()
0x58a09	112	_ZN16CGsCertification21DrawCertiSuccessPopupEv	CGsCertification::DrawCertiSuccessPopup()
0x58a79	188	_ZN16CGsCertification23DrawCertiNextRetryPopupEv	CGsCertification::DrawCertiNextRetryPopup()
0x58b35	612	_ZN16CGsCertification26DrawCertiConnectErrorPopupEv	CGsCertification::DrawCertiConnectErrorPopup()
0x58d99	164	_ZN16CGsCertification18DrawCertiFailPopupEv	CGsCertification::DrawCertiFailPopup()
0x58e3d	180	_ZN16CGsCertification18DrawCertiDenyPopupEv	CGsCertification::DrawCertiDenyPopup()
0x58ef1	140	_ZN16CGsCertification22DrawCertiDownloadPopupEv	CGsCertification::DrawCertiDownloadPopup()
0x58f7d	128	_ZN16CGsCertification21DrawCertiProcessPopupEv	CGsCertification::DrawCertiProcessPopup()
0x58ffd	228	_ZN16CGsCertification4DrawEv	CGsCertification::Draw()
0x590e1	46	_ZN14CGsEncryptFile11SetPhoneNumEPc	CGsEncryptFile::SetPhoneNum()
0x59111	26	_ZN14CGsEncryptFile7ReadPtrEPvj	CGsEncryptFile::ReadPtr()
0x5912d	24	_ZN14CGsEncryptFile8WritePtrEPvj	CGsEncryptFile::WritePtr()
0x59145	104	_ZN14CGsEncryptFile10ProtectValEPvj	CGsEncryptFile::ProtectVal()
0x591ad	136	_ZN14CGsEncryptFile11CulCheckSumEPvj	CGsEncryptFile::CulCheckSum()
0x59235	20	_ZN14CGsEncryptFile7LoadEndEv	CGsEncryptFile::LoadEnd()
0x59249	312	_ZN14CGsEncryptFile9LoadBeginEPKcb	CGsEncryptFile::LoadBegin()
0x59381	112	_ZN14CGsEncryptFile9SaveBeginEj	CGsEncryptFile::SaveBegin()
0x593f1	72	_ZN14CGsEncryptFile7SaveEndEPKc	CGsEncryptFile::SaveEnd()
0x59439	54	_ZN14CGsEncryptFile4SaveEPvPKcj	CGsEncryptFile::Save()
0x59471	66	_ZN14CGsEncryptFile4LoadEPvPKcj	CGsEncryptFile::Load()
0x594b5	30	_ZN7CGsFile13GetCreateTimeEPKc	CGsFile::GetCreateTime()
0x594d5	28	_Z12GsFSFileSizePKci	GsFSFileSize()
0x594f1	16	_ZN7CGsFile6DeleteEPKc	CGsFile::Delete()
0x59501	256	_ZN7CGsFile15DeleteDirectoryEPc	CGsFile::DeleteDirectory()
0x59601	14	_Z13GsIsExistFilePKc	GsIsExistFile()
0x59611	10	_ZN7CGsFile7IsExistEPKc	CGsFile::IsExist()
0x5961d	32	_Z8GsFSOpenPaii	GsFSOpen()
0x5963d	52	_ZN7CGsFile4LoadEPvPKcj	CGsFile::Load()
0x59671	64	_ZN7CGsFile8LoadFileEPKcPi	CGsFile::LoadFile()
0x596b1	62	_ZN7CGsFile6AppendEPvPKcj	CGsFile::Append()
0x596f1	52	_ZN7CGsFile4SaveEPvPKcj	CGsFile::Save()
0x59725	32	_ZN11CGsGraphics17GetFrameBufferPtrEii	CGsGraphics::GetFrameBufferPtr()
0x59745	552	_ZN11CGsGraphics24ClippingLine_LiangBarskyERiS0_S0_S0_	CGsGraphics::ClippingLine_LiangBarsky()
0x5996d	106	_ZN11CGsGraphics17CheckRectInScreenE7TGXRECTii	CGsGraphics::CheckRectInScreen()
0x599d9	36	_ZN12CGsSingletonI11CGsGraphicsED1Ev	CGsSingleton()
0x599fd	96	_ZN11CGsGraphics12ConvertColorEj	CGsGraphics::ConvertColor()
0x59a5d	56	_ZN11CGsGraphics18SetForegroundColorEj	CGsGraphics::SetForegroundColor()
0x59a95	32	_ZN11CGsGraphics8EndAlphaEv	CGsGraphics::EndAlpha()
0x59ab5	146	_ZN16CGcxScreenBuffer11SetClipRectEiiii	CGcxScreenBuffer::SetClipRect()
0x59b49	50	_ZN11CGsGraphics18InitialAnnunciatorEb	CGsGraphics::InitialAnnunciator()
0x59b7d	1072	_ZN11CGsGraphics21DrawNativeFillEllipseEiiiij17EnumGsDegreeCCW90	CGsGraphics::DrawNativeFillEllipse()
0x59fad	24	_ZN11CGsGraphics15DrawFillEllipseEiiiijii	CGsGraphics::DrawFillEllipse()
0x59fc5	252	_ZN11CGsGraphics14DrawTextInRectE7TGXRECTPKcj11EnumGsAlignii	CGsGraphics::DrawTextInRect()
0x5a0c1	82	_ZN11CGsGraphics11DrawTextBBFEPKciiiiiib	CGsGraphics::DrawTextBBF()
0x5a115	68	_ZN11CGsGraphics11CreateBFontEPKcS1_S1_	CGsGraphics::CreateBFont()
0x5a159	70	_ZN11CGsGraphics18DrawTextSystemFontEPKciiii	CGsGraphics::DrawTextSystemFont()
0x5a1a1	202	_ZN11CGsGraphics8PutPixelEii	CGsGraphics::PutPixel()
0x5a26d	238	_ZN11CGsGraphics11DrawEllipseEiiij	CGsGraphics::DrawEllipse()
0x5a35d	28	_ZN11CGsGraphics8GetPixelEii	CGsGraphics::GetPixel()
0x5a379	96	_ZN11CGsGraphics20FastClearNonClippingEiiii	CGsGraphics::FastClearNonClipping()
0x5a3d9	116	_ZN11CGsGraphics11ClearScreenEj	CGsGraphics::ClearScreen()
0x5a44d	340	_ZN11CGsGraphics12RotateScreenEi	CGsGraphics::RotateScreen()
0x5a5a1	56	_ZN11CGsGraphics8FlushLCDEiiii	CGsGraphics::FlushLCD()
0x5a5d9	152	_ZN11CGsGraphics11BeginScreenEj	CGsGraphics::BeginScreen()
0x5a671	212	_ZN11CGsGraphics13InitialScreenEb	CGsGraphics::InitialScreen()
0x5a745	14	_ZN11CGsGraphics7ReleaseEv	CGsGraphics::Release()
0x5a755	56	_ZN11CGsGraphicsD1Ev	CGsGraphics()
0x5a78d	56	_ZN11CGsGraphicsD2Ev	CGsGraphics()
0x5a7c5	18	_ZN11CGsGraphicsD0Ev	CGsGraphics()
0x5a7d9	44	_ZN12CGsSingletonI11CGsGraphicsED0Ev	CGsSingleton()
0x5a805	36	_ZN16CGcxScreenBuffer11SetClipRectEP7TGXRECT.clone.0	CGcxScreenBuffer::SetClipRect()
0x5a829	192	_ZN11CGsGraphics10InitializeEbbbi	CGsGraphics::Initialize()
0x5a8e9	52	_ZN11CGsGraphicsC1Ebbbi	CGsGraphics()
0x5a91d	52	_ZN11CGsGraphicsC2Ebbbi	CGsGraphics()
0x5a951	364	_ZN11CGsGraphics9EndScreenEi	CGsGraphics::EndScreen()
0x5aabd	924	_ZN11CGsGraphics17LineDDAFixedPointEiiii	CGsGraphics::LineDDAFixedPoint()
0x5ae59	352	_ZN11CGsGraphics22DrawColorGradationRectEiiiiNS_7EnumDirEhhhhhh	CGsGraphics::DrawColorGradationRect()
0x5afb9	296	_ZN11CGsGraphics16DrawOutLineShadeEiiiijbb	CGsGraphics::DrawOutLineShade()
0x5b0e1	514	_ZN11CGsGraphics13DrawRoundRectEiiiiij	CGsGraphics::DrawRoundRect()
0x5b2e5	60	_ZN11CGsGraphics8PutPixelEiij	CGsGraphics::PutPixel()
0x5b321	82	_ZN11CGsGraphics15DrawFillPolygonEPiS0_ij	CGsGraphics::DrawFillPolygon()
0x5b375	82	_ZN11CGsGraphics11DrawPolygonEPiS0_ij	CGsGraphics::DrawPolygon()
0x5b3c9	96	_ZN11CGsGraphics11DrawEllipseEiiiijii	CGsGraphics::DrawEllipse()
0x5b429	140	_ZN11CGsGraphics12DrawFillRectEiiiij	CGsGraphics::DrawFillRect()
0x5b4b5	188	_ZN11CGsGraphics13DrawScrollBarEiiiiiiijj	CGsGraphics::DrawScrollBar()
0x5b571	720	_ZN11CGsGraphics17DrawFillRoundRectEiiiiij	CGsGraphics::DrawFillRoundRect()
0x5b841	142	_ZN11CGsGraphics8DrawRectEiiiij	CGsGraphics::DrawRect()
0x5b8d1	80	_ZN11CGsGraphics8DrawLineEiiiij	CGsGraphics::DrawLine()
0x5b921	2	_ZN7CGsLogo8DoUpdateEv	CGsLogo::DoUpdate()
0x5b925	2	_ZN7CGsLogo11DoPlaySoundEv	CGsLogo::DoPlaySound()
0x5b929	4	_ZN7CGsLogo10DoEndStateEv	CGsLogo::DoEndState()
0x5b92d	2	_ZN11CGsLogo20108DoUpdateEv	CGsLogo2010::DoUpdate()
0x5b931	2	_ZN11CGsLogo201011DoPlaySoundEv	CGsLogo2010::DoPlaySound()
0x5b935	4	_ZN11CGsLogo201010DoEndStateEv	CGsLogo2010::DoEndState()
0x5b939	28	_ZN7CGsLogoC2Ev	CGsLogo()
0x5b955	28	_ZN7CGsLogoC1Ev	CGsLogo()
0x5b971	22	_ZN7CGsLogo7ReleaseEv	CGsLogo::Release()
0x5b989	32	_ZN7CGsLogoD1Ev	CGsLogo()
0x5b9a9	32	_ZN7CGsLogoD2Ev	CGsLogo()
0x5b9c9	36	_ZN7CGsLogo6UpdateEv	CGsLogo::Update()
0x5b9ed	28	_ZN11CGsLogo2010C2Ev	CGsLogo2010()
0x5ba09	28	_ZN11CGsLogo2010C1Ev	CGsLogo2010()
0x5ba25	4	_ZN11CGsLogo201019Get555AniFrameCountEv	CGsLogo2010::Get555AniFrameCount()
0x5ba29	4	_ZN11CGsLogo201024GetGamevilLogoFrameCountEv	CGsLogo2010::GetGamevilLogoFrameCount()
0x5ba2d	20	_ZN11CGsLogo201018GetTotalFrameCountEv	CGsLogo2010::GetTotalFrameCount()
0x5ba41	48	_ZN11CGsLogo20106UpdateEv	CGsLogo2010::Update()
0x5ba71	68	_ZN11CGsLogo201014DrawGamevilURLE10enumDrawOPi	CGsLogo2010::DrawGamevilURL()
0x5bab5	132	_ZN11CGsLogo20104DrawEv	CGsLogo2010::Draw()
0x5bb39	132	_ZN7CGsLogo4DrawEv	CGsLogo::Draw()
0x5bbbd	54	_ZN11CGsLogo20107ReleaseEv	CGsLogo2010::Release()
0x5bbf5	32	_ZN11CGsLogo2010D1Ev	CGsLogo2010()
0x5bc15	32	_ZN11CGsLogo2010D2Ev	CGsLogo2010()
0x5bc35	46	_ZN7CGsLogo10InitializeEPcb	CGsLogo::Initialize()
0x5bc65	180	_ZN11CGsLogo201010InitializeEPcbP6CGsApp	CGsLogo2010::Initialize()
0x5bd19	18	_ZN11CGsLogo2010D0Ev	CGsLogo2010()
0x5bd2d	18	_ZN7CGsLogoD0Ev	CGsLogo()
0x5bd41	52	_Z5GsPowii	GsPow()
0x5bd75	50	_Z14GsDistance2DHV8TGXPOINTS_	GsDistance2DHV()
0x5bda9	28	_Z15GsDivideRoundUpii	GsDivideRoundUp()
0x5bdc5	6	_Z10GsSquareFni	GsSquareFn()
0x5bdcd	4	_Z12GsSquareDiffi	GsSquareDiff()
0x5bdd1	84	_Z21GsNewtonRaphsonMethodPFiiES0_ji	GsNewtonRaphsonMethod()
0x5be25	44	_Z6GsSqrtj	GsSqrt()
0x5be51	62	_Z12GsDistance2D8TGXPOINTS_	GsDistance2D()
0x5be91	60	_Z8GsSin100i	GsSin100()
0x5becd	12	_Z8GsCos100i	GsCos100()
0x5bed9	36	_Z8GsTan100i	GsTan100()
0x5befd	72	_Z13GsArcTan10000i	GsArcTan10000()
0x5bf45	12	_Z11GsArcTan100i	GsArcTan100()
0x5bf51	80	_Z8GsArcTanii	GsArcTan()
0x5bfa1	76	_Z10GsSin65535i	GsSin65535()
0x5bfed	12	_Z10GsCos65535i	GsCos65535()
0x5bff9	30	_Z5GsLogii	GsLog()
0x5c019	24	_Z10GsHexToIntc	GsHexToInt()
0x5c031	32	_Z9GsReadHexPKciii	GsReadHex()
0x5c051	24	_Z8GsCipheri	GsCipher()
0x5c069	2	_ZN10CGsNetCore14OnConnectErrorEi	CGsNetCore::OnConnectError()
0x5c06d	4	_ZN10CGsNetCore23GetRecvPacketHeaderSizeEv	CGsNetCore::GetRecvPacketHeaderSize()
0x5c071	24	_ZN10CGsNetCore14ReturnDataSizeEv	CGsNetCore::ReturnDataSize()
0x5c089	10	_ZN10CGsNetCore12NetTimeOutCBEPv	CGsNetCore::NetTimeOutCB()
0x5c095	36	_ZN10CGsNetCore17DirectSockConnectEv	CGsNetCore::DirectSockConnect()
0x5c0b9	88	_ZN10CGsNetCore13DoSockConnectEv	CGsNetCore::DoSockConnect()
0x5c111	8	_ZN10CGsNetCore13SockConnectCBEPv	CGsNetCore::SockConnectCB()
0x5c119	44	_ZN12CGsNetBufferC1Ei	CGsNetBuffer()
0x5c145	148	_ZN10CGsNetCoreC1E15EnumConnectTypeibb	CGsNetCore()
0x5c1d9	148	_ZN10CGsNetCoreC2E15EnumConnectTypeibb	CGsNetCore()
0x5c26d	98	_ZN10CGsNetCore10DisconnectEb	CGsNetCore::Disconnect()
0x5c2d1	80	_ZN10CGsNetCore9DoConnectEv	CGsNetCore::DoConnect()
0x5c321	8	_ZN10CGsNetCore14NetDoConnectCBEPv	CGsNetCore::NetDoConnectCB()
0x5c329	44	_ZN10CGsNetCore12DoNetConnectEv	CGsNetCore::DoNetConnect()
0x5c355	78	_ZN10CGsNetCore7ConnectEPKcs	CGsNetCore::Connect()
0x5c3a5	28	_ZN10CGsNetCore9ExceptionEi	CGsNetCore::Exception()
0x5c3c1	88	_ZN10CGsNetCore6DoRecvEi	CGsNetCore::DoRecv()
0x5c419	256	_ZN10CGsNetCore4RecvEv	CGsNetCore::Recv()
0x5c519	32	_ZN10CGsNetCore6RecvCBEllPv	CGsNetCore::RecvCB()
0x5c539	52	_ZN10CGsNetCore13SockConnectCBEllPv	CGsNetCore::SockConnectCB()
0x5c56d	42	_ZN10CGsNetCore12NetConnectCBElPv	CGsNetCore::NetConnectCB()
0x5c599	12	_ZN10CGsNetCore20NetConnectCBSimulateEPv	CGsNetCore::NetConnectCBSimulate()
0x5c5a5	112	_ZN10CGsNetCoreD1Ev	CGsNetCore()
0x5c615	112	_ZN10CGsNetCoreD2Ev	CGsNetCore()
0x5c685	260	_ZN10CGsNetCore4SendEv	CGsNetCore::Send()
0x5c789	8	_ZN10CGsNetCore10SendPacketEv	CGsNetCore::SendPacket()
0x5c791	118	_ZN10CGsNetCore4SendEtPKvi	CGsNetCore::Send()
0x5c809	102	_ZN10CGsNetCore4SendEt	CGsNetCore::Send()
0x5c871	26	_ZN10CGsNetCore6SendCBEllPv	CGsNetCore::SendCB()
0x5c88d	2	_ZN9CGsOemIME12OnKeyReleaseEi	CGsOemIME::OnKeyRelease()
0x5c891	72	_ZN9CGsOemIME14IsPointerOnBoxEP12GxPointerPos7TGXRECT	CGsOemIME::IsPointerOnBox()
0x5c8d9	76	_ZN9CGsOemIME28PaintOnlyCurrentModeKeyBoardEv	CGsOemIME::PaintOnlyCurrentModeKeyBoard()
0x5c925	40	_ZN9CGsOemIME14ChangeNextModeEv	CGsOemIME::ChangeNextMode()
0x5c94d	36	_ZN9CGsOemIME12GetTextCountEv	CGsOemIME::GetTextCount()
0x5c971	236	_ZN9CGsOemIME12SearchHANGLEEi	CGsOemIME::SearchHANGLE()
0x5ca5d	20	_ZN9CGsOemIME8NumCountEii	CGsOemIME::NumCount()
0x5ca71	276	_ZN9CGsOemIME14CheckTextCountEiRiS0_	CGsOemIME::CheckTextCount()
0x5cb85	88	_ZN9CGsOemIME15CompleteAllTextEv	CGsOemIME::CompleteAllText()
0x5cbdd	34	_ZN9CGsOemIME16GetTextInputTypeEi	CGsOemIME::GetTextInputType()
0x5cc01	124	_ZN9CGsOemIME10DeleteTextEv	CGsOemIME::DeleteText()
0x5cc7d	468	_ZN9CGsOemIME11TransBufferEv	CGsOemIME::TransBuffer()
0x5ce51	52	_ZN9CGsOemIME7SetTextEPc	CGsOemIME::SetText()
0x5ce85	136	_ZN9CGsOemIME23KeyKoreaGAMEVILKeyBoardEv	CGsOemIME::KeyKoreaGAMEVILKeyBoard()
0x5cf0d	208	_ZN9CGsOemIME23KeyKoreaSAMSUNGKeyBoardEv	CGsOemIME::KeyKoreaSAMSUNGKeyBoard()
0x5cfdd	312	_ZN9CGsOemIME18KeyKoreaLGKeyBoardEv	CGsOemIME::KeyKoreaLGKeyBoard()
0x5d115	36	_ZN9CGsOemIME7GetTextEb	CGsOemIME::GetText()
0x5d139	36	_ZN12CGsSingletonI9CGsOemIMEED1Ev	CGsSingleton()
0x5d15d	80	_ZN9CGsOemIME11ResetBufferEv	CGsOemIME::ResetBuffer()
0x5d1ad	186	_ZN9CGsOemIME10SetCallOemEPci14EnumOEMKeyModePFvPvS0_iEhhhhS2_	CGsOemIME::SetCallOem()
0x5d269	204	_ZN9CGsOemIMEC1Ev	CGsOemIME()
0x5d335	204	_ZN9CGsOemIMEC2Ev	CGsOemIME()
0x5d401	216	_ZN9CGsOemIME12KeyCommonKeyEv	CGsOemIME::KeyCommonKey()
0x5d4d9	96	_ZN9CGsOemIME17KeyNumberKeyBoardEv	CGsOemIME::KeyNumberKeyBoard()
0x5d539	82	_ZN9CGsOemIME14KeyKorKeyBoardEv	CGsOemIME::KeyKorKeyBoard()
0x5d58d	168	_ZN9CGsOemIME19KeyEngSmallKeyBoardEv	CGsOemIME::KeyEngSmallKeyBoard()
0x5d635	176	_ZN9CGsOemIME17KeyEngBigKeyBoardEv	CGsOemIME::KeyEngBigKeyBoard()
0x5d6e5	62	_ZN9CGsOemIME3RunEv	CGsOemIME::Run()
0x5d725	94	_ZN9CGsOemIME15CheckPointOnBoxEv	CGsOemIME::CheckPointOnBox()
0x5d785	66	_ZN9CGsOemIME16OnPointerReleaseEP12GxPointerPos	CGsOemIME::OnPointerRelease()
0x5d7c9	36	_ZN9CGsOemIME14OnPointerPressEP12GxPointerPos	CGsOemIME::OnPointerPress()
0x5d7ed	44	_ZN9CGsOemIME10OnKeyPressEi	CGsOemIME::OnKeyPress()
0x5d819	160	_ZN9CGsOemIME15PaintChangeModeE14EnumOEMKeyMode	CGsOemIME::PaintChangeMode()
0x5d8b9	108	_ZN9CGsOemIME16PaintKorKeyBoardEv	CGsOemIME::PaintKorKeyBoard()
0x5d925	76	_ZN9CGsOemIME19PaintNumberKeyBoardEv	CGsOemIME::PaintNumberKeyBoard()
0x5d971	76	_ZN9CGsOemIME21PaintEngSmallKeyBoardEv	CGsOemIME::PaintEngSmallKeyBoard()
0x5d9bd	76	_ZN9CGsOemIME19PaintEngBigKeyBoardEv	CGsOemIME::PaintEngBigKeyBoard()
0x5da09	114	_ZN9CGsOemIME12SetTouchRectEv	CGsOemIME::SetTouchRect()
0x5da7d	1120	_ZN9CGsOemIME6OnDrawEv	CGsOemIME::OnDraw()
0x5dedd	492	_ZN9CGsOemIME7InitialEh	CGsOemIME::Initial()
0x5e0c9	44	_ZN12CGsSingletonI9CGsOemIMEED0Ev	CGsSingleton()
0x5e0f5	84	_ZN9CGsOemIMED1Ev	CGsOemIME()
0x5e149	18	_ZN9CGsOemIMED0Ev	CGsOemIME()
0x5e15d	84	_ZN9CGsOemIMED2Ev	CGsOemIME()
0x5e1b1	32	_ZN14CGsParticleMgr12StopGenerateEv	CGsParticleMgr::StopGenerate()
0x5e1d1	34	_ZN14CGsParticleMgr16GetTotalParticleEv	CGsParticleMgr::GetTotalParticle()
0x5e1f5	46	_ZN10CGsEmitter10InitializeEv	CGsEmitter::Initialize()
0x5e225	100	_ZN10CGsEmitter17SetDefaultEmitterEv	CGsEmitter::SetDefaultEmitter()
0x5e289	42	_ZN10CGsEmitterC1Eiib	CGsEmitter()
0x5e2b5	42	_ZN10CGsEmitterC2Eiib	CGsEmitter()
0x5e2e1	636	_ZN10CGsEmitter14UpdateParticleEP13tagGsParticle	CGsEmitter::UpdateParticle()
0x5e55d	70	_ZN10CGsEmitter9DeleteAllEv	CGsEmitter::DeleteAll()
0x5e5a5	98	_ZN10CGsEmitter11SetPositionEssb	CGsEmitter::SetPosition()
0x5e609	154	_ZN10CGsEmitter11AddPositionEssb	CGsEmitter::AddPosition()
0x5e6a5	280	_ZN10CGsEmitter13RenderEmitterEP11CGxPZxFrame	CGsEmitter::RenderEmitter()
0x5e7bd	66	_ZN14CGsParticleMgr7DrawAllEv	CGsParticleMgr::DrawAll()
0x5e801	26	_ZN10CGsEmitter4SaveEPc	CGsEmitter::Save()
0x5e81d	60	_ZN10CGsEmitterC1EPK12tagGsEmitteriib	CGsEmitter()
0x5e859	60	_ZN10CGsEmitterC2EPK12tagGsEmitteriib	CGsEmitter()
0x5e895	44	_ZN10CGsEmitter4LoadEPc	CGsEmitter::Load()
0x5e8c1	72	_ZN14CGsParticleMgr11LoadPTCDataEPKc	CGsParticleMgr::LoadPTCData()
0x5e909	128	_ZN14CGsParticleMgr17LoadParticleImageEPKcb	CGsParticleMgr::LoadParticleImage()
0x5e989	114	_ZN14CGsParticleMgr13DeleteEmitterEP10CGsEmitterb	CGsParticleMgr::DeleteEmitter()
0x5e9fd	40	_ZN14CGsParticleMgr16DeleteAllEmitterEv	CGsParticleMgr::DeleteAllEmitter()
0x5ea25	78	_ZN14CGsParticleMgr18InitParticleSystemEi	CGsParticleMgr::InitParticleSystem()
0x5ea75	32	_ZN14CGsParticleMgr18InitParticleSystemEP9CGxPZxMgri	CGsParticleMgr::InitParticleSystem()
0x5ea95	38	_ZN14CGsParticleMgr18InitParticleSystemEPKcib	CGsParticleMgr::InitParticleSystem()
0x5eabd	60	_ZN8CGsArrayIP10CGsEmitterE14ExtendCapacityEi	CGsArray()
0x5eaf9	106	_ZN8CGsArrayIP10CGsEmitterE6InsertEiRS1_	CGsArray()
0x5eb65	234	_ZN14CGsParticleMgr13CreateEmitterEPK12tagGsEmitteriiiibbb	CGsParticleMgr::CreateEmitter()
0x5ec51	46	_ZN14CGsParticleMgr21DestroyParticleSystemEv	CGsParticleMgr::DestroyParticleSystem()
0x5ec81	164	_ZN14CGsParticleMgr13CreateEmitterEiiiibPKcbb	CGsParticleMgr::CreateEmitter()
0x5ed25	784	_ZN10CGsEmitter11AddParticleEv	CGsEmitter::AddParticle()
0x5f035	264	_ZN10CGsEmitter13UpdateEmitterEii	CGsEmitter::UpdateEmitter()
0x5f13d	88	_ZN14CGsParticleMgr9UpdateAllEii	CGsParticleMgr::UpdateAll()
0x5f195	48	_ZN12CGsSoundClipC2Ev	CGsSoundClip()
0x5f1c5	48	_ZN12CGsSoundClipC1Ev	CGsSoundClip()
0x5f1f5	24	_ZN12CGsSoundClip8SetStateEi	CGsSoundClip::SetState()
0x5f20d	32	_ZN12CGsSoundClip6ClipCBEP12__MC_MdaClipl	CGsSoundClip::ClipCB()
0x5f22d	2	_ZN8CGsSound3RunEv	CGsSound::Run()
0x5f231	42	_ZN8CGsSound9IsPlayingEv	CGsSound::IsPlaying()
0x5f25d	2	_ZN8CGsSound13SetMuteKeytonEhhh	CGsSound::SetMuteKeyton()
0x5f261	40	_ZN8CGsSound17GetSoundIDListIdxEi	CGsSound::GetSoundIDListIdx()
0x5f289	36	_ZN12CGsSingletonI8CGsSoundED1Ev	CGsSingleton()
0x5f2ad	110	_ZN8CGsSound8OnCreateEiPi	CGsSound::OnCreate()
0x5f31d	172	_ZN8CGsSound29IsNotContinuouslyLoopingPhoneEv	CGsSound::IsNotContinuouslyLoopingPhone()
0x5f3c9	40	_ZN8CGsSound13RestoreDeviceEv	CGsSound::RestoreDevice()
0x5f3f1	26	_ZN8CGsSound8VibratorEii	CGsSound::Vibrator()
0x5f40d	58	_ZN8CGsSound13SetClipVolumeEv	CGsSound::SetClipVolume()
0x5f449	10	_ZN8CGsSound13StopClipSoundEv	CGsSound::StopClipSound()
0x5f455	152	_ZN8CGsSound15SetGlobalVolumeEii	CGsSound::SetGlobalVolume()
0x5f4ed	72	_ZN8CGsSound15SetGlobalVolumeEi	CGsSound::SetGlobalVolume()
0x5f535	536	_ZN8CGsSound10InitDeviceEv	CGsSound::InitDevice()
0x5f74d	14	_ZN8CGsSound4StopEv	CGsSound::Stop()
0x5f75d	20	_ZN8CGsSound13ForcedStopBGMEv	CGsSound::ForcedStopBGM()
0x5f771	44	_ZN12CGsSingletonI8CGsSoundED0Ev	CGsSingleton()
0x5f79d	108	_ZN8CGsSoundD1Ev	CGsSound()
0x5f809	18	_ZN8CGsSoundD0Ev	CGsSound()
0x5f81d	108	_ZN8CGsSoundD2Ev	CGsSound()
0x5f889	132	_ZN8CGsSoundC1E14EnumGsClipTypePKcj	CGsSound()
0x5f90d	132	_ZN8CGsSoundC2E14EnumGsClipTypePKcj	CGsSound()
0x5f991	80	_ZN12CGsSoundClip13PreClipCreateEPa14EnumGsClipType	CGsSoundClip::PreClipCreate()
0x5f9e1	50	_ZN12CGsSoundClip8LoadDataEPa14EnumGsClipType	CGsSoundClip::LoadData()
0x5fa15	38	_ZN12CGsSoundClip4StopEv	CGsSoundClip::Stop()
0x5fa3d	74	_ZN8CGsSound7ReserveEih	CGsSound::Reserve()
0x5fa89	46	_ZN12CGsSoundClip7DestroyEv	CGsSoundClip::Destroy()
0x5fab9	38	_ZN8CGsSound7SuspendEv	CGsSound::Suspend()
0x5fae1	86	_ZN12CGsSoundClip6DoPlayEih	CGsSoundClip::DoPlay()
0x5fb39	92	_ZN12CGsSoundClip4PlayEih	CGsSoundClip::Play()
0x5fb95	344	_ZN8CGsSound9PlaySoundEiih	CGsSound::PlaySound()
0x5fced	112	_ZN8CGsSound4PlayEiih	CGsSound::Play()
0x5fd5d	32	_ZN8CGsSound11ReserveProcEv	CGsSound::ReserveProc()
0x5fd7d	52	_ZN8CGsSound6ResumeEv	CGsSound::Resume()
0x5fdb1	40	_ZN12CGsStringBBFC2Eb	CGsStringBBF()
0x5fdd9	40	_ZN12CGsStringBBFC1Eb	CGsStringBBF()
0x5fe01	24	_ZN12CGsStringBBFD2Ev	CGsStringBBF()
0x5fe19	24	_ZN12CGsStringBBFD1Ev	CGsStringBBF()
0x5fe31	44	_ZN12CGsStringBBF11GetStrWidthEPKcii	CGsStringBBF::GetStrWidth()
0x5fe5d	84	_ZN12CGsStringBBF4DrawEPKciiiiib	CGsStringBBF::Draw()
0x5feb1	92	_ZN12CGsStringBBF10bbf_strlenEPKc	CGsStringBBF::bbf_strlen()
0x5ff0d	464	_ZN12CGsStringBBF9BBFDrawerEPKciiiiib	CGsStringBBF::BBFDrawer()
0x600dd	848	_ZN12CGsStringBBF7DrawBBFEPKciiiiiiiP16tagGsBBFDrawInfo	CGsStringBBF::DrawBBF()
0x6042d	18	_ZN12CGsStringBBFD0Ev	CGsStringBBF()
0x60441	20	_Z16GsGetXorKeyValuev	GsGetXorKeyValue()
0x60455	20	_Z16GsSetXorKeyValuej	GsSetXorKeyValue()
0x60469	2	_Z15GsPutMemoryInfoPc	GsPutMemoryInfo()
0x6046d	20	_Z23GsCalculateNumberLengthj	GsCalculateNumberLength()
0x60481	16	_Z22GsCalculateCommaLengthj	GsCalculateCommaLength()
0x60491	20	_Z23GsCalculateStringLengthPc	GsCalculateStringLength()
0x604a5	44	_Z17GsRemoveTailBlankPci	GsRemoveTailBlank()
0x604d1	106	_Z21GsConvertNumberToCharjPcb	GsConvertNumberToChar()
0x6053d	176	_Z21GsConvertCharToNumberPc	GsConvertCharToNumber()
0x605ed	272	_Z15GsIntersectRectR7TGXRECTS0_PS_	GsIntersectRect()
0x606fd	166	_Z11GsUnionRect7TGXRECTS_	GsUnionRect()
0x607a5	124	_Z11GsUnionRectP7TGXRECTPKS_S2_	GsUnionRect()
0x60821	102	_Z11GsUnionRectRiS_S_S_P7TGXRECT	GsUnionRect()
0x60889	12	_Z13GsPZxSubFrameP11CGxPZxFramei	GsPZxSubFrame()
0x60895	228	_ZN12CGsPhoneInfo11DrawMassageEP11CGsGraphicsPKc	CGsPhoneInfo::DrawMassage()
0x60979	88	_ZN12CGsPhoneInfo16CheckPhoneNumberEPKcb	CGsPhoneInfo::CheckPhoneNumber()
0x609d1	36	_ZN12CGsPhoneInfo13InitPhoneInfoEP11CGsGraphicsPKcb	CGsPhoneInfo::InitPhoneInfo()
0x609f5	64	_Z13GsGetPhoneNumPc	GsGetPhoneNum()
0x60a35	100	_ZN12CGsPhoneInfo13InitPhoneInfoEPKcS1_S1_b	CGsPhoneInfo::InitPhoneInfo()
0x60a99	56	_ZN9CGxPZxMgr9LoadFrameEt	CGxPZxMgr::LoadFrame()
0x60ad1	40	_ZN9CGxPZxMgr7LoadAniEt	CGxPZxMgr::LoadAni()
0x60af9	170	_Z16GsLoadPzxPartAddPKcP9CGxPZxMgr10tagPZxTypei	GsLoadPzxPartAdd()
0x60ba5	126	_Z13GsLoadPzxPartP9CGxPZxMgr10tagPZxTypei	GsLoadPzxPart()
0x60c25	378	_Z13GsLoadPzfPartP9CGxPZAMgrPiPKcS3_S3_biii	GsLoadPzfPart()
0x60da1	294	_Z9GsLoadPzfPKcS0_S0_biii	GsLoadPzf()
0x60ec9	40	_ZN9CGxPZxMgr10LoadAniAllEv	CGxPZxMgr::LoadAniAll()
0x60ef1	36	_ZN9CGxPZxMgr12LoadFrameAllEv	CGxPZxMgr::LoadFrameAll()
0x60f15	64	_Z16SetLoadPzxFormatP9CGxPZxMgri	SetLoadPzxFormat()
0x60f55	160	_Z13GsLoadPzaPartPiPKcbbi	GsLoadPzaPart()
0x60ff5	136	_Z9GsLoadPzaPKcbbi	GsLoadPza()
0x6107d	200	_Z16GsLoadPzxPartMPLP9CGxPZxMgrPKcS2_10tagPZxTypeibiiii	GsLoadPzxPartMPL()
0x61145	220	_Z16GsLoadPzxPartMPLPKcS0_10tagPZxTypeibiiii	GsLoadPzxPartMPL()
0x61221	172	_Z13GsLoadPzxPartPKc10tagPZxTypeibiii	GsLoadPzxPart()
0x612cd	280	_Z12GsLoadPzxPalPKcS0_ibbiii	GsLoadPzxPal()
0x613e5	236	_Z9GsLoadPzxPKcbbiii	GsLoadPzx()
0x614d1	134	_Z12LoadResourcePKcbPi	LoadResource()
0x61559	44	_Z14GsLoadResourcePKcPi	GsLoadResource()
0x61585	194	_Z8LoadFilePKcbPi	LoadFile()
0x61649	44	_Z10GsLoadFilePKcPi	GsLoadFile()
0x61675	90	_Z17GsGetLastJongsungPKc	GsGetLastJongsung()
0x616d1	56	_Z23GsGetLastJongsungStringPKci	GsGetLastJongsungString()
0x61709	40	_Z7GsSleepj	GsSleep()
0x61731	112	_Z16GsGetCurrentTimePiS_S_	GsGetCurrentTime()
0x617a1	8	_Z16GsGetCurrentTimev	GsGetCurrentTime()
0x617a9	112	_Z8GsGetFPSv	GsGetFPS()
0x61819	52	_Z24GsGetCurrentYearMonthDayPiS_S_	GsGetCurrentYearMonthDay()
0x6184d	18	_Z9GsExitLogiPc	GsExitLog()
0x61861	8	_Z6GsExiti	GsExit()
0x61869	36	_Z17GsIsExistResourcePKcPi	GsIsExistResource()
0x6188d	60	_Z19GsCreateXorKeyValuev	GsCreateXorKeyValue()
0x618c9	16	_ZN10CAniObject4initEv	CAniObject::init()
0x618d9	6	_ZN10CAniObject11SetPositionEss	CAniObject::SetPosition()
0x618e1	14	_ZN10CAniObject12GetAniMaxNumEv	CAniObject::GetAniMaxNum()
0x618f1	28	_ZN10CAniObject4DrawEv	CAniObject::Draw()
0x6190d	42	_ZN10CAniObject6DrawN4Ev	CAniObject::DrawN4()
0x61939	26	_ZN10CAniObject10SetLoopingEb	CAniObject::SetLooping()
0x61955	38	_ZN10CAniObject11SetGxPzxMgrEP9CGxPZxMgr	CAniObject::SetGxPzxMgr()
0x6197d	22	_ZN10CAniObject9SetPzxMgrEP7CPzxMgr	CAniObject::SetPzxMgr()
0x61995	40	_ZN10CAniObjectC1EP7CPzxMgr	CAniObject()
0x619bd	40	_ZN10CAniObjectC2EP7CPzxMgr	CAniObject()
0x619e5	52	_ZN10CAniObjectC1EP9CGxPZxMgr	CAniObject()
0x61a19	52	_ZN10CAniObjectC2EP9CGxPZxMgr	CAniObject()
0x61a4d	56	_ZN10CAniObjectC1Ev	CAniObject()
0x61a85	56	_ZN10CAniObjectC2Ev	CAniObject()
0x61abd	34	_ZN10CAniObject10SetAniClipEv	CAniObject::SetAniClip()
0x61ae1	104	_ZN10CAniObject6DrawN4Eii11eDrawOp_Nomiiiii	CAniObject::DrawN4()
0x61b49	52	_ZN10CAniObject4DrawEii10enumDrawOPil	CAniObject::Draw()
0x61b7d	24	_ZN10CAniObject16GetTotalFrameCntEv	CAniObject::GetTotalFrameCnt()
0x61b95	220	_ZN10CAniObject22GetCurAniFrameBoundBoxEP7TGXRECTiiii	CAniObject::GetCurAniFrameBoundBox()
0x61c71	66	_ZN10CAniObject25GetCurAniFrameBoundBoxCntEi	CAniObject::GetCurAniFrameBoundBoxCnt()
0x61cb5	36	_ZN10CAniObject11GetCurFrameEv	CAniObject::GetCurFrame()
0x61cd9	26	_ZN10CAniObject11SetFrameNumEi	CAniObject::SetFrameNum()
0x61cf5	24	_ZN10CAniObject11GetFrameNumEv	CAniObject::GetFrameNum()
0x61d0d	24	_ZN10CAniObject8PauseAniEv	CAniObject::PauseAni()
0x61d25	38	_ZN10CAniObject14IsEndAnimationEv	CAniObject::IsEndAnimation()
0x61d4d	36	_ZN10CAniObject13IsCurAniStateEi	CAniObject::IsCurAniState()
0x61d71	42	_ZN10CAniObject9DoAnimateEv	CAniObject::DoAnimate()
0x61d9d	10	_ZN10CAniObject7DoLogicEv	CAniObject::DoLogic()
0x61da9	68	_ZN10CAniObject20GetCurAniFrameHeightEv	CAniObject::GetCurAniFrameHeight()
0x61ded	68	_ZN10CAniObject19GetCurAniFrameWidthEv	CAniObject::GetCurAniFrameWidth()
0x61e31	68	_ZN10CAniObject18GetCurAniFrameOffYEv	CAniObject::GetCurAniFrameOffY()
0x61e75	68	_ZN10CAniObject18GetCurAniFrameOffXEv	CAniObject::GetCurAniFrameOffX()
0x61eb9	40	_ZN10CAniObject18GetCurAniFrameRefYEv	CAniObject::GetCurAniFrameRefY()
0x61ee1	40	_ZN10CAniObject18GetCurAniFrameRefXEv	CAniObject::GetCurAniFrameRefX()
0x61f09	56	_ZN10CAniObject10InitMotionEib	CAniObject::InitMotion()
0x61f41	14	_ZN10CAniObject12ChangeMotionEib	CAniObject::ChangeMotion()
0x61f51	76	_ZN10CAniObjectC1EP9CGxPZxAni	CAniObject()
0x61f9d	76	_ZN10CAniObjectC2EP9CGxPZxAni	CAniObject()
0x61fe9	68	_ZN10CAniObjectD1Ev	CAniObject()
0x6202d	68	_ZN10CAniObjectD2Ev	CAniObject()
0x62071	18	_ZN10CAniObjectD0Ev	CAniObject()
0x62085	30	_ZN13CAniObjectMgr23ResetDrawLayerAniObjectEv	CAniObjectMgr::ResetDrawLayerAniObject()
0x620a5	118	_ZN13CAniObjectMgr18DrawLayerAniObjectEii	CAniObjectMgr::DrawLayerAniObject()
0x6211d	72	_ZN13CAniObjectMgrC1Ei	CAniObjectMgr()
0x62165	72	_ZN13CAniObjectMgrC2Ei	CAniObjectMgr()
0x621ad	92	_ZN7CVectorIP10CAniObjectE10AddElementES1_	CVector()
0x62209	22	_ZN13CAniObjectMgr21AddDrawLayerAniObjectEiP10CAniObject	CAniObjectMgr::AddDrawLayerAniObject()
0x62221	44	_ZN7CVectorIP10CAniObjectED1Ev	CVector()
0x6224d	88	_ZN13CAniObjectMgrD1Ev	CAniObjectMgr()
0x622a5	88	_ZN13CAniObjectMgrD2Ev	CAniObjectMgr()
0x622fd	128	_ZN13CAniObjectMgr13InitDrawLayerEv	CAniObjectMgr::InitDrawLayer()
0x6237d	18	_ZN13CAniObjectMgrD0Ev	CAniObjectMgr()
0x62391	48	_ZN7CVectorIP10CAniObjectED0Ev	CVector()
0x623c1	28	_ZN9BitvectorixEi	Bitvector()
0x623dd	48	_ZN9Bitvector3SetEib	Bitvector::Set()
0x6240d	28	_ZN9Bitvector8ClearAllEv	Bitvector::ClearAll()
0x62429	30	_ZN9Bitvector6SetAllEv	Bitvector::SetAll()
0x62449	6	_ZN9Bitvector4SizeEv	Bitvector::Size()
0x62451	8	_ZN9Bitvector7GetCellEi	Bitvector::GetCell()
0x62459	4	_ZN9Bitvector17GetBitVectorArrayEv	Bitvector::GetBitVectorArray()
0x6245d	96	_ZN9Bitvector6ResizeEi	Bitvector::Resize()
0x624bd	40	_ZN9BitvectorC1Ei	Bitvector()
0x624e5	40	_ZN9BitvectorC2Ei	Bitvector()
0x6250d	44	_ZN9BitvectorD1Ev	Bitvector()
0x62539	48	_ZN9BitvectorC1Ev	Bitvector()
0x62569	48	_ZN9BitvectorC2Ev	Bitvector()
0x62599	44	_ZN9BitvectorD2Ev	Bitvector()
0x625c5	18	_ZN9BitvectorD0Ev	Bitvector()
0x625d9	20	_ZN17CBoss_Rival_Alien13InitCrashRectEv	CBoss_Rival_Alien::InitCrashRect()
0x625ed	256	_ZN17CBoss_Rival_Alien35DoFSM_BOSS_RIVAL_ALIEN_DAMAGE_GUARDEv	CBoss_Rival_Alien::DoFSM_BOSS_RIVAL_ALIEN_DAMAGE_GUARD()
0x626ed	56	_ZN17CBoss_Rival_Alien13ChangePaletteEv	CBoss_Rival_Alien::ChangePalette()
0x62725	80	_ZN17CBoss_Rival_Alien10DrawOutArmEv	CBoss_Rival_Alien::DrawOutArm()
0x62775	80	_ZN17CBoss_Rival_Alien9DrawInArmEv	CBoss_Rival_Alien::DrawInArm()
0x627c5	56	_ZN17CBoss_Rival_Alien8DrawBodyEv	CBoss_Rival_Alien::DrawBody()
0x627fd	168	_ZN17CBoss_Rival_Alien8DrawHeadEb	CBoss_Rival_Alien::DrawHead()
0x628a5	46	_ZN17CBoss_Rival_Alien14IsEndAnimationEv	CBoss_Rival_Alien::IsEndAnimation()
0x628d5	78	_ZN17CBoss_Rival_Alien10InitMotionEhb	CBoss_Rival_Alien::InitMotion()
0x62925	42	_ZN17CBoss_Rival_Alien33InitFSM_BOSS_RIVAL_ALIEN_BACKWARDEh	CBoss_Rival_Alien::InitFSM_BOSS_RIVAL_ALIEN_BACKWARD()
0x62951	54	_ZN17CBoss_Rival_Alien35InitFSM_BOSS_RIVAL_ALIEN_ATTACK_JABEhhh	CBoss_Rival_Alien::InitFSM_BOSS_RIVAL_ALIEN_ATTACK_JAB()
0x62989	54	_ZN17CBoss_Rival_Alien37InitFSM_BOSS_RIVAL_ALIEN_ATTACK_UPPEREhhh	CBoss_Rival_Alien::InitFSM_BOSS_RIVAL_ALIEN_ATTACK_UPPER()
0x629c1	42	_ZN17CBoss_Rival_Alien29InitFSM_BOSS_RIVAL_ALIEN_DASHEh	CBoss_Rival_Alien::InitFSM_BOSS_RIVAL_ALIEN_DASH()
0x629ed	38	_ZN17CBoss_Rival_Alien35InitFSM_BOSS_RIVAL_ALIEN_DAMAGE_JABEhh	CBoss_Rival_Alien::InitFSM_BOSS_RIVAL_ALIEN_DAMAGE_JAB()
0x62a15	38	_ZN17CBoss_Rival_Alien37InitFSM_BOSS_RIVAL_ALIEN_DAMAGE_UPPEREhh	CBoss_Rival_Alien::InitFSM_BOSS_RIVAL_ALIEN_DAMAGE_UPPER()
0x62a3d	460	_ZN17CBoss_Rival_Alien18CalculateCrashRectEv	CBoss_Rival_Alien::CalculateCrashRect()
0x62c09	106	_ZN17CBoss_Rival_Alien9DoAnimateEv	CBoss_Rival_Alien::DoAnimate()
0x62c75	122	_ZN17CBoss_Rival_Alien27DoFSM_BOSS_RIVAL_ALIEN_WAITEv	CBoss_Rival_Alien::DoFSM_BOSS_RIVAL_ALIEN_WAIT()
0x62cf1	200	_ZN17CBoss_Rival_Alien41DoFSM_BOSS_RIVAL_ALIEN_DAMAGE_GUARD_CRUSHEv	CBoss_Rival_Alien::DoFSM_BOSS_RIVAL_ALIEN_DAMAGE_GUARD_CRUSH()
0x62db9	130	_ZN17CBoss_Rival_Alien27DoFSM_BOSS_RIVAL_ALIEN_FAKEEv	CBoss_Rival_Alien::DoFSM_BOSS_RIVAL_ALIEN_FAKE()
0x62e3d	18	_ZN17CBoss_Rival_Alien7DoLogicEv	CBoss_Rival_Alien::DoLogic()
0x62e51	138	_ZN17CBoss_Rival_Alien4InitEv	CBoss_Rival_Alien::Init()
0x62edd	116	_ZN17CBoss_Rival_AlienD1Ev	CBoss_Rival_Alien()
0x62f51	18	_ZN17CBoss_Rival_AlienD0Ev	CBoss_Rival_Alien()
0x62f65	116	_ZN17CBoss_Rival_AlienD2Ev	CBoss_Rival_Alien()
0x62fd9	92	_ZN17CBoss_Rival_AlienC1EP7CPzxMgrS1_h	CBoss_Rival_Alien()
0x63035	92	_ZN17CBoss_Rival_AlienC2EP7CPzxMgrS1_h	CBoss_Rival_Alien()
0x63091	132	_ZN17CBoss_Rival_Alien29InitFSM_BOSS_RIVAL_ALIEN_INITEv	CBoss_Rival_Alien::InitFSM_BOSS_RIVAL_ALIEN_INIT()
0x63115	236	_ZN17CBoss_Rival_Alien12InitFsmLogicEv	CBoss_Rival_Alien::InitFsmLogic()
0x63201	46	_ZN17CBoss_Rival_Alien5ResetEv	CBoss_Rival_Alien::Reset()
0x63231	92	_ZN17CBoss_Rival_Alien28DoFSM_BOSS_RIVAL_ALIEN_GUARDEv	CBoss_Rival_Alien::DoFSM_BOSS_RIVAL_ALIEN_GUARD()
0x6328d	88	_ZN17CBoss_Rival_Alien31DoFSM_BOSS_RIVAL_ALIEN_BACKWARDEv	CBoss_Rival_Alien::DoFSM_BOSS_RIVAL_ALIEN_BACKWARD()
0x632e5	94	_ZN17CBoss_Rival_Alien30DoFSM_BOSS_RIVAL_ALIEN_FORWARDEv	CBoss_Rival_Alien::DoFSM_BOSS_RIVAL_ALIEN_FORWARD()
0x63345	88	_ZN17CBoss_Rival_Alien27DoFSM_BOSS_RIVAL_ALIEN_DASHEv	CBoss_Rival_Alien::DoFSM_BOSS_RIVAL_ALIEN_DASH()
0x6339d	284	_ZN17CBoss_Rival_Alien33DoFSM_BOSS_RIVAL_ALIEN_DAMAGE_JABEv	CBoss_Rival_Alien::DoFSM_BOSS_RIVAL_ALIEN_DAMAGE_JAB()
0x634b9	252	_ZN17CBoss_Rival_Alien33DoFSM_BOSS_RIVAL_ALIEN_ATTACK_JABEv	CBoss_Rival_Alien::DoFSM_BOSS_RIVAL_ALIEN_ATTACK_JAB()
0x635b5	240	_ZN17CBoss_Rival_Alien35DoFSM_BOSS_RIVAL_ALIEN_ATTACK_UPPEREv	CBoss_Rival_Alien::DoFSM_BOSS_RIVAL_ALIEN_ATTACK_UPPER()
0x636a5	296	_ZN17CBoss_Rival_Alien35DoFSM_BOSS_RIVAL_ALIEN_DAMAGE_UPPEREv	CBoss_Rival_Alien::DoFSM_BOSS_RIVAL_ALIEN_DAMAGE_UPPER()
0x637cd	128	_ZN17CBoss_Rival_Alien10DoFSMLogicEv	CBoss_Rival_Alien::DoFSMLogic()
0x6384d	34	_ZN17CBoss_Rival_Alien35PushFSM_BOSS_RIVAL_ALIEN_ATTACK_JABEhhh	CBoss_Rival_Alien::PushFSM_BOSS_RIVAL_ALIEN_ATTACK_JAB()
0x63871	60	_ZN13CRival_ObjectD2Ev	CRival_Object()
0x638ad	60	_ZN13CRival_ObjectD1Ev	CRival_Object()
0x638e9	12	_ZN13CRival_Object13DrawBackLayerEv	CRival_Object::DrawBackLayer()
0x638f5	24	_ZN13CRival_Object12DrawMidLayerEv	CRival_Object::DrawMidLayer()
0x6390d	12	_ZN13CRival_Object14DrawFrontLayerEv	CRival_Object::DrawFrontLayer()
0x63919	8	_ZN13CRival_Object7InitPosEv	CRival_Object::InitPos()
0x63921	32	_ZN10CRival_NomD2Ev	CRival_Nom()
0x63941	32	_ZN10CRival_NomD1Ev	CRival_Nom()
0x63961	12	_ZN10CRival_Nom4InitEv	CRival_Nom::Init()
0x6396d	2	_ZN10CRival_Nom11KeyReleasedEi	CRival_Nom::KeyReleased()
0x63971	32	_ZN10CRival_Nom7IsGuardEv	CRival_Nom::IsGuard()
0x63991	8	_ZN11CRival_Boss4InitEv	CRival_Boss::Init()
0x63999	20	_ZN11CRival_Boss7IsGuardEv	CRival_Boss::IsGuard()
0x639ad	156	_ZN11CRival_Boss11IsCollisionE7TGXRECTS0_	CRival_Boss::IsCollision()
0x63a49	68	_ZN11CRival_Boss10GetBombPosE7TGXRECTRiS1_	CRival_Boss::GetBombPos()
0x63a8d	940	_ZN11CRival_Boss13CalurateJudgeEv	CRival_Boss::CalurateJudge()
0x63e39	292	_ZN11CRival_Boss4DrawEv	CRival_Boss::Draw()
0x63f5d	252	_ZN10CRival_Nom4DrawEv	CRival_Nom::Draw()
0x64059	92	_ZN7CVectorIiE10AddElementEi	CVector()
0x640b5	368	_ZN11CRival_Boss10SetCommendEv	CRival_Boss::SetCommend()
0x64225	1012	_ZN11CRival_Boss9SetActionEv	CRival_Boss::SetAction()
0x64619	216	_ZN11CRival_Boss7DoLogicEv	CRival_Boss::DoLogic()
0x646f1	44	_ZN7CVectorIiED1Ev	CVector()
0x6471d	244	_ZN10CRival_Nom7DoLogicEv	CRival_Nom::DoLogic()
0x64811	612	_ZN11CRival_Boss10SetCommendEi	CRival_Boss::SetCommend()
0x64a75	18	_ZN13CRival_ObjectD0Ev	CRival_Object()
0x64a89	18	_ZN10CRival_NomD0Ev	CRival_Nom()
0x64a9d	572	_ZN10CRival_Nom10SetCommendEi	CRival_Nom::SetCommend()
0x64cd9	10	_ZN13CRival_Object5ResetEv	CRival_Object::Reset()
0x64ce5	88	_ZN13CRival_ObjectC1EP7CPzxMgrS1_S1_h	CRival_Object()
0x64d3d	88	_ZN13CRival_ObjectC2EP7CPzxMgrS1_S1_h	CRival_Object()
0x64d95	92	_ZN11CRival_BossC1EP7CPzxMgrS1_S1_P10CRival_NomP7CBossUi	CRival_Boss()
0x64df1	92	_ZN11CRival_BossC2EP7CPzxMgrS1_S1_P10CRival_NomP7CBossUi	CRival_Boss()
0x64e4d	56	_ZN10CRival_NomC1EP7CPzxMgrS1_S1_	CRival_Nom()
0x64e85	56	_ZN10CRival_NomC2EP7CPzxMgrS1_S1_	CRival_Nom()
0x64ebd	60	_ZN11CRival_BossD2Ev	CRival_Boss()
0x64ef9	48	_ZN7CVectorIiED0Ev	CVector()
0x64f29	60	_ZN11CRival_BossD1Ev	CRival_Boss()
0x64f65	18	_ZN11CRival_BossD0Ev	CRival_Boss()
0x64f79	500	_ZN10CRival_Nom8KeyPressEi	CRival_Nom::KeyPress()
0x6516d	2	_ZN13CBossGameBase15ProcessGameoverEv	CBossGameBase::ProcessGameover()
0x65171	44	_ZN13CBossGameBase15GetBalanceLevelEv	CBossGameBase::GetBalanceLevel()
0x6519d	10	_ZN13CBossGameBase17ActiveShakeScreenEii	CBossGameBase::ActiveShakeScreen()
0x651a9	22	_ZN13CBossGameBase13DoShakeScreenEv	CBossGameBase::DoShakeScreen()
0x651c1	26	_ZN13CBossGameBase19ActiveEnlargeScreenEiill	CBossGameBase::ActiveEnlargeScreen()
0x651dd	60	_ZN13CBossGameBase15DoEnlargeScreenEv	CBossGameBase::DoEnlargeScreen()
0x65219	10	_ZN13CBossGameBase17ActiveSparkScreenEii	CBossGameBase::ActiveSparkScreen()
0x65225	40	_ZN13CBossGameBase13DoSparkScreenEv	CBossGameBase::DoSparkScreen()
0x6524d	28	_ZN13CBossGameBase14IsPlayingSoundEv	CBossGameBase::IsPlayingSound()
0x65269	76	_ZN13CBossGameBase14GetBalenceDataEi	CBossGameBase::GetBalenceData()
0x652b5	308	_ZN13CBossGameBase12SetBossScoreEv	CBossGameBase::SetBossScore()
0x653e9	52	_ZN13CBossGameBase5ResetEh	CBossGameBase::Reset()
0x6541d	48	_ZN13CBossGameBase9StopSoundEv	CBossGameBase::StopSound()
0x6544d	140	_ZN13CBossGameBase9EndScriptEv	CBossGameBase::EndScript()
0x654d9	108	_ZN13CBossGameBase9SoundPlayEib	CBossGameBase::SoundPlay()
0x65545	108	_ZN13CBossGameBase18PlayStageBackSoundEv	CBossGameBase::PlayStageBackSound()
0x655b1	68	_ZN13CBossGameBase15DrawSparkScreenEv	CBossGameBase::DrawSparkScreen()
0x655f5	68	_ZN13CBossGameBase16DrawElargeScreenEv	CBossGameBase::DrawElargeScreen()
0x65639	68	_ZN13CBossGameBase15DrawShakeScreenEv	CBossGameBase::DrawShakeScreen()
0x6567d	84	_ZN13CBossGameBaseD1Ev	CBossGameBase()
0x656d1	84	_ZN13CBossGameBaseD2Ev	CBossGameBase()
0x65725	132	_ZN13CBossGameBaseC1Ev	CBossGameBase()
0x657a9	132	_ZN13CBossGameBaseC2Ev	CBossGameBase()
0x6582d	2	_ZN6CScene10OnKeyPressEi	CScene::OnKeyPress()
0x65831	2	_ZN6CScene12OnKeyReleaseEi	CScene::OnKeyRelease()
0x65835	2	_ZN6CScene9SoundStopEv	CScene::SoundStop()
0x65839	2	_ZN6CScene8DrawBackEii	CScene::DrawBack()
0x6583d	6	_ZN6CScene13EvPointerMoveE12GxPointerPos	CScene::EvPointerMove()
0x65845	34	_ZN15CBoss_GreedKing27PushFSM_BOSS_GREEDKING_HOLDEv	CBoss_GreedKing::PushFSM_BOSS_GREEDKING_HOLD()
0x65869	142	_ZN20CBossScene_GreedKing6DeleteEv	CBossScene_GreedKing::Delete()
0x658f9	2	_ZN20CBossScene_GreedKing8MsgCrackEP8CMessage	CBossScene_GreedKing::MsgCrack()
0x658fd	2	_ZN20CBossScene_GreedKing11KeyReleasedEi	CBossScene_GreedKing::KeyReleased()
0x65901	6	_ZN20CBossScene_GreedKing16EvPointerReleaseE12GxPointerPos	CBossScene_GreedKing::EvPointerRelease()
0x65909	12	_ZN20CBossScene_GreedKing8SetDelayEi	CBossScene_GreedKing::SetDelay()
0x65915	70	_ZN15CBoss_GreedKing15ProcessPositionEv	CBoss_GreedKing::ProcessPosition()
0x6595d	44	_ZN15CBoss_GreedKing8GetSpeedEv	CBoss_GreedKing::GetSpeed()
0x65989	70	_ZN14CNom_GreedKing15ProcessPositionEv	CNom_GreedKing::ProcessPosition()
0x659d1	100	_ZN12CShotManager10ClearShotsEv	CShotManager::ClearShots()
0x65a35	112	_ZN12CShotManager12DoShotsLogicEv	CShotManager::DoShotsLogic()
0x65aa5	30	_ZN12CShotManager9DrawShotsEv	CShotManager::DrawShots()
0x65ac5	8	_ZN18CItemBox_GreedKing14SelectAttackerEv	CItemBox_GreedKing::SelectAttacker()
0x65acd	212	_ZN18CItemBox_GreedKing24DoFSM_ITEM_GREEDKING_FLYEv	CItemBox_GreedKing::DoFSM_ITEM_GREEDKING_FLY()
0x65ba1	60	_ZN18CItemBox_GreedKing27InitFSM_ITEM_GREEDKING_INITEv	CItemBox_GreedKing::InitFSM_ITEM_GREEDKING_INIT()
0x65bdd	264	_ZN18CItemBox_GreedKing26InitFSM_ITEM_GREEDKING_FLYEv	CItemBox_GreedKing::InitFSM_ITEM_GREEDKING_FLY()
0x65ce5	84	_ZN14CNom_GreedKing26InitFSM_NOM_GREEDKING_INITEv	CNom_GreedKing::InitFSM_NOM_GREEDKING_INIT()
0x65d39	112	_ZN14CNom_GreedKing25InitFSM_NOM_GREEDKING_RUNEv	CNom_GreedKing::InitFSM_NOM_GREEDKING_RUN()
0x65da9	116	_ZN14CNom_GreedKing28InitFSM_NOM_GREEDKING_ATTACKEv	CNom_GreedKing::InitFSM_NOM_GREEDKING_ATTACK()
0x65e1c	20	_ZThn28_N14CNom_GreedKing12InitFsmLogicEv	_ZThn28_N14CNom_GreedKing12InitFsmLogicEv
0x65e31	164	_ZN14CNom_GreedKing12InitFsmLogicEv	CNom_GreedKing::InitFsmLogic()
0x65ed5	108	_ZN15CBoss_GreedKing26InitFSM_BOSS_GREEDKING_RUNEv	CBoss_GreedKing::InitFSM_BOSS_GREEDKING_RUN()
0x65f41	96	_ZN15CBoss_GreedKing29InitFSM_BOSS_GREEDKING_ATTACKEv	CBoss_GreedKing::InitFSM_BOSS_GREEDKING_ATTACK()
0x65fa1	22	_ZN15CBoss_GreedKing9SetDamageEv	CBoss_GreedKing::SetDamage()
0x65fb9	112	_ZN18CItemBox_GreedKing29InitFSM_ITEM_GREEDKING_RULLETEv	CItemBox_GreedKing::InitFSM_ITEM_GREEDKING_RULLET()
0x66029	54	_ZN18CItemBox_GreedKing12InitFsmLogicEv	CItemBox_GreedKing::InitFsmLogic()
0x66061	88	_ZN18CItemBox_GreedKing17SetSuccessFailCntEv	CItemBox_GreedKing::SetSuccessFailCnt()
0x660b9	140	_ZN15CBoss_GreedKing9SetAttackEv	CBoss_GreedKing::SetAttack()
0x66145	96	_ZN15CBoss_GreedKing27InitFSM_BOSS_GREEDKING_INITEv	CBoss_GreedKing::InitFSM_BOSS_GREEDKING_INIT()
0x661a5	120	_ZN15CBoss_GreedKing28InitFSM_BOSS_GREEDKING_ANGRYEv	CBoss_GreedKing::InitFSM_BOSS_GREEDKING_ANGRY()
0x6621d	88	_ZN15CBoss_GreedKing10SetDefenseEv	CBoss_GreedKing::SetDefense()
0x66275	200	_ZN5CShot7DoLogicEv	CShot::DoLogic()
0x6633d	78	_ZN18CItemBox_GreedKing12GetCrashRectEv	CItemBox_GreedKing::GetCrashRect()
0x6638d	100	_ZN14CNom_GreedKing12GetCrashRectEv	CNom_GreedKing::GetCrashRect()
0x663f1	100	_ZN15CBoss_GreedKing12GetCrashRectEv	CBoss_GreedKing::GetCrashRect()
0x66455	524	_ZN18CItemBox_GreedKing4DrawEii	CItemBox_GreedKing::Draw()
0x66661	240	_ZN12CShotManager14CheckCrashRectEP7TGXRECT	CShotManager::CheckCrashRect()
0x66751	100	_ZN18CItemBox_GreedKingD1Ev	CItemBox_GreedKing()
0x667b5	18	_ZN18CItemBox_GreedKingD0Ev	CItemBox_GreedKing()
0x667c9	100	_ZN18CItemBox_GreedKingD2Ev	CItemBox_GreedKing()
0x6682d	68	_ZN12CShotManagerC1EP7CPzxMgr	CShotManager()
0x66871	68	_ZN12CShotManagerC2EP7CPzxMgr	CShotManager()
0x668b5	64	_ZN12CShotManagerC1Ev	CShotManager()
0x668f5	64	_ZN12CShotManagerC2Ev	CShotManager()
0x66935	92	_ZN7CVectorIP5CShotE10AddElementES1_	CVector()
0x66991	44	_ZN7CVectorIP5CShotED1Ev	CVector()
0x669bd	32	_ZN5CShotD1Ev	CShot()
0x669dd	18	_ZN5CShotD0Ev	CShot()
0x669f1	32	_ZN5CShotD2Ev	CShot()
0x66a11	48	_ZN5CShotC1EP7CPzxMgr	CShot()
0x66a41	236	_ZN12CShotManager9FireShotsEiiibi	CShotManager::FireShots()
0x66b2d	48	_ZN5CShotC2EP7CPzxMgr	CShot()
0x66b5d	48	_ZN5CShotC1Ev	CShot()
0x66b8d	48	_ZN5CShotC2Ev	CShot()
0x66bbd	28	_ZN14CNom_GreedKing13ActiveTalkBoxEPKc	CNom_GreedKing::ActiveTalkBox()
0x66bd9	28	_ZN15CBoss_GreedKing13ActiveTalkBoxEPKc	CBoss_GreedKing::ActiveTalkBox()
0x66bf5	48	_ZN14CNom_GreedKing9SetDamageEv	CNom_GreedKing::SetDamage()
0x66c25	132	_ZN14CNom_GreedKing4DrawEii	CNom_GreedKing::Draw()
0x66ca9	120	_ZN14CNom_GreedKing7DoLogicEv	CNom_GreedKing::DoLogic()
0x66d21	62	_ZN15CBoss_GreedKing7DoLogicEv	CBoss_GreedKing::DoLogic()
0x66d61	220	_ZN14CNom_GreedKingC1EP7CPzxMgr	CNom_GreedKing()
0x66e3d	220	_ZN14CNom_GreedKingC2EP7CPzxMgr	CNom_GreedKing()
0x66f19	220	_ZN15CBoss_GreedKingC1EP14CNom_GreedKing	CBoss_GreedKing()
0x66ff5	220	_ZN15CBoss_GreedKingC2EP14CNom_GreedKing	CBoss_GreedKing()
0x670d1	204	_ZN15CBoss_GreedKing10SaveMemoryEii	CBoss_GreedKing::SaveMemory()
0x6719d	384	_ZN14CNom_GreedKing26DoFSM_NOM_GREEDKING_ATTACKEv	CNom_GreedKing::DoFSM_NOM_GREEDKING_ATTACK()
0x6731d	932	_ZN15CBoss_GreedKing4DrawEii	CBoss_GreedKing::Draw()
0x676c1	10	_ZN20CBossScene_GreedKing10AppSuspendEv	CBossScene_GreedKing::AppSuspend()
0x676cc	20	_ZThn8_N20CBossScene_GreedKing15ProcessGameoverEv	_ZThn8_N20CBossScene_GreedKing15ProcessGameoverEv
0x676e1	76	_ZN20CBossScene_GreedKing15ProcessGameoverEv	CBossScene_GreedKing::ProcessGameover()
0x6772c	20	_ZThn8_N20CBossScene_GreedKing5ResetEh	_ZThn8_N20CBossScene_GreedKing5ResetEh
0x67741	140	_ZN20CBossScene_GreedKing5ResetEh	CBossScene_GreedKing::Reset()
0x677cd	344	_ZN20CBossScene_GreedKing10CheckCrashEv	CBossScene_GreedKing::CheckCrash()
0x67925	224	_ZN20CBossScene_GreedKing9DrawSceneEii	CBossScene_GreedKing::DrawScene()
0x67a05	1164	_ZN20CBossScene_GreedKing8drawBackEii	CBossScene_GreedKing::drawBack()
0x67e91	92	_ZN20CBossScene_GreedKing14EvPointerPressE12GxPointerPos	CBossScene_GreedKing::EvPointerPress()
0x67eed	220	_ZN20CBossScene_GreedKing10KeyPressedEi	CBossScene_GreedKing::KeyPressed()
0x67fc9	38	_ZN20CBossScene_GreedKing9AppResumeEv	CBossScene_GreedKing::AppResume()
0x67ff1	52	_ZN20CBossScene_GreedKingD1Ev	CBossScene_GreedKing()
0x68025	18	_ZN20CBossScene_GreedKingD0Ev	CBossScene_GreedKing()
0x68039	52	_ZN20CBossScene_GreedKingD2Ev	CBossScene_GreedKing()
0x6806d	76	_ZN12CShotManagerD2Ev	CShotManager()
0x680b8	20	_ZThn28_N14CNom_GreedKingD1Ev	_ZThn28_N14CNom_GreedKingD1Ev
0x680cd	88	_ZN14CNom_GreedKingD1Ev	CNom_GreedKing()
0x68124	20	_ZThn28_N14CNom_GreedKingD0Ev	_ZThn28_N14CNom_GreedKingD0Ev
0x68139	18	_ZN14CNom_GreedKingD0Ev	CNom_GreedKing()
0x6814d	88	_ZN14CNom_GreedKingD2Ev	CNom_GreedKing()
0x681a4	20	_ZThn28_N15CBoss_GreedKingD1Ev	_ZThn28_N15CBoss_GreedKingD1Ev
0x681b9	88	_ZN15CBoss_GreedKingD1Ev	CBoss_GreedKing()
0x68210	20	_ZThn28_N15CBoss_GreedKingD0Ev	_ZThn28_N15CBoss_GreedKingD0Ev
0x68225	18	_ZN15CBoss_GreedKingD0Ev	CBoss_GreedKing()
0x68239	88	_ZN15CBoss_GreedKingD2Ev	CBoss_GreedKing()
0x68291	76	_ZN12CShotManagerD1Ev	CShotManager()
0x682dd	18	_ZN12CShotManagerD0Ev	CShotManager()
0x682f1	48	_ZN7CVectorIP5CShotED0Ev	CVector()
0x68321	232	_ZN18CItemBox_GreedKingC1Ev	CItemBox_GreedKing()
0x68409	528	_ZN20CBossScene_GreedKing4InitEv	CBossScene_GreedKing::Init()
0x68619	88	_ZN20CBossScene_GreedKingC1Eh	CBossScene_GreedKing()
0x68671	88	_ZN20CBossScene_GreedKingC2Eh	CBossScene_GreedKing()
0x686c9	232	_ZN18CItemBox_GreedKingC2Ev	CItemBox_GreedKing()
0x687b1	124	_ZN15CBoss_GreedKing27InitFSM_BOSS_GREEDKING_HOLDEv	CBoss_GreedKing::InitFSM_BOSS_GREEDKING_HOLD()
0x6882c	20	_ZThn28_N15CBoss_GreedKing12InitFsmLogicEv	_ZThn28_N15CBoss_GreedKing12InitFsmLogicEv
0x68841	168	_ZN15CBoss_GreedKing12InitFsmLogicEv	CBoss_GreedKing::InitFsmLogic()
0x688e9	96	_ZN15CBoss_GreedKing26DoFSM_BOSS_GREEDKING_ANGRYEv	CBoss_GreedKing::DoFSM_BOSS_GREEDKING_ANGRY()
0x68949	60	_ZN18CItemBox_GreedKing25DoFSM_ITEM_GREEDKING_DROPEv	CItemBox_GreedKing::DoFSM_ITEM_GREEDKING_DROP()
0x68985	504	_ZN15CBoss_GreedKing27DoFSM_BOSS_GREEDKING_ATTACKEv	CBoss_GreedKing::DoFSM_BOSS_GREEDKING_ATTACK()
0x68b7c	20	_ZThn8_N20CBossScene_GreedKing9EndScriptEv	_ZThn8_N20CBossScene_GreedKing9EndScriptEv
0x68b91	96	_ZN20CBossScene_GreedKing9EndScriptEv	CBossScene_GreedKing::EndScript()
0x68bf1	64	_ZN14CNom_GreedKing26DoFSM_NOM_GREEDKING_ESCAPEEv	CNom_GreedKing::DoFSM_NOM_GREEDKING_ESCAPE()
0x68c31	156	_ZN15CBoss_GreedKing31DoFSM_BOSS_GREEDKING_GET_WEAPONEv	CBoss_GreedKing::DoFSM_BOSS_GREEDKING_GET_WEAPON()
0x68ccd	56	_ZN14CNom_GreedKing31DoFSM_NOM_GREEDKING_ESCAPE_JUMPEv	CNom_GreedKing::DoFSM_NOM_GREEDKING_ESCAPE_JUMP()
0x68d05	168	_ZN14CNom_GreedKing30DoFSM_NOM_GREEDKING_GET_WEAPONEv	CNom_GreedKing::DoFSM_NOM_GREEDKING_GET_WEAPON()
0x68dac	20	_ZThn28_N14CNom_GreedKing10DoFSMLogicEv	_ZThn28_N14CNom_GreedKing10DoFSMLogicEv
0x68dc1	64	_ZN14CNom_GreedKing10DoFSMLogicEv	CNom_GreedKing::DoFSMLogic()
0x68e01	68	_ZN15CBoss_GreedKing32DoFSM_BOSS_GREEDKING_ESCAPE_JUMPEv	CBoss_GreedKing::DoFSM_BOSS_GREEDKING_ESCAPE_JUMP()
0x68e45	148	_ZN15CBoss_GreedKing24DoFSM_BOSS_GREEDKING_RUNEv	CBoss_GreedKing::DoFSM_BOSS_GREEDKING_RUN()
0x68ed9	676	_ZN18CItemBox_GreedKing7DoLogicEv	CItemBox_GreedKing::DoLogic()
0x6917d	356	_ZN20CBossScene_GreedKing7DoLogicEv	CBossScene_GreedKing::DoLogic()
0x692e1	624	_ZN15CBoss_GreedKing27DoFSM_BOSS_GREEDKING_ESCAPEEv	CBoss_GreedKing::DoFSM_BOSS_GREEDKING_ESCAPE()
0x69550	20	_ZThn28_N15CBoss_GreedKing10DoFSMLogicEv	_ZThn28_N15CBoss_GreedKing10DoFSMLogicEv
0x69565	104	_ZN15CBoss_GreedKing10DoFSMLogicEv	CBoss_GreedKing::DoFSMLogic()
0x695cd	424	_ZN18CItemBox_GreedKing27DoFSM_ITEM_GREEDKING_RULLETEv	CItemBox_GreedKing::DoFSM_ITEM_GREEDKING_RULLET()
0x69775	36	_ZN18CItemBox_GreedKing10DoFSMLogicEv	CItemBox_GreedKing::DoFSMLogic()
0x69799	2	_ZN16CBossScene_Plate8MsgCrackEP8CMessage	CBossScene_Plate::MsgCrack()
0x6979d	10	_ZN16CBossScene_Plate11KeyReleasedEi	CBossScene_Plate::KeyReleased()
0x697a9	6	_ZN16CBossScene_Plate16EvPointerReleaseE12GxPointerPos	CBossScene_Plate::EvPointerRelease()
0x697b1	10	_ZN16CBossScene_Plate8SetDelayEi	CBossScene_Plate::SetDelay()
0x697bd	100	_ZN11CBoss_Plate12ClearObjectsEv	CBoss_Plate::ClearObjects()
0x69821	52	_ZN11CBoss_Plate10DrawBulletEii	CBoss_Plate::DrawBullet()
0x69855	60	_ZN11CBoss_Plate8DrawWallEii	CBoss_Plate::DrawWall()
0x69891	6	_ZN11CBoss_Plate9SetDamageEv	CBoss_Plate::SetDamage()
0x69899	6	_ZN11CBoss_Plate13SetReflectionEv	CBoss_Plate::SetReflection()
0x698a1	24	_ZN8CBBulletC2Ev	CBBullet()
0x698b9	24	_ZN8CBBulletC1Ev	CBBullet()
0x698d1	44	_ZN8CBBulletD2Ev	CBBullet()
0x698fd	44	_ZN8CBBulletD1Ev	CBBullet()
0x69929	100	_ZN10CNom_Plate11ClearBulletEv	CNom_Plate::ClearBullet()
0x6998d	44	_ZN8CNBulletD2Ev	CNBullet()
0x699b9	44	_ZN8CNBulletD1Ev	CNBullet()
0x699e5	76	_ZN8CNBullet4DrawEii	CNBullet::Draw()
0x69a31	44	_ZN10CNom_Plate10DrawBulletEii	CNom_Plate::DrawBullet()
0x69a5d	32	_ZN7CMeteorD1Ev	CMeteor()
0x69a7d	18	_ZN8CNBulletD0Ev	CNBullet()
0x69a91	18	_ZN8CBBulletD0Ev	CBBullet()
0x69aa5	102	_ZN8CNBullet15GetBoundingRectEii	CNBullet::GetBoundingRect()
0x69b0d	98	_ZN10CNom_Plate15GetBoundingRectEii	CNom_Plate::GetBoundingRect()
0x69b71	102	_ZN8CBBullet15GetBoundingRectEii	CBBullet::GetBoundingRect()
0x69bd9	102	_ZN11CBoss_Plate15GetBoundingRectEii	CBoss_Plate::GetBoundingRect()
0x69c41	124	_ZN8CNBullet7DoLogicEv	CNBullet::DoLogic()
0x69cbd	68	_ZN8CBBullet10IsInScreenEv	CBBullet::IsInScreen()
0x69d01	104	_ZN8CNBulletC1EP10CNom_Plate	CNBullet()
0x69d69	104	_ZN8CNBulletC2EP10CNom_Plate	CNBullet()
0x69dd1	116	_ZN7CMeteorC1EP7CPzxMgriiii	CMeteor()
0x69e45	116	_ZN7CMeteorC2EP7CPzxMgriiii	CMeteor()
0x69eb9	44	_ZN11CBoss_Plate12GetEnergy100Ev	CBoss_Plate::GetEnergy100()
0x69ee5	72	_ZN11CBoss_Plate8FireWallEv	CBoss_Plate::FireWall()
0x69f2d	140	_ZN16CBossScene_Plate14DoScrollScreenEv	CBossScene_Plate::DoScrollScreen()
0x69fb9	68	_ZN10CNom_Plate9SetDamageEv	CNom_Plate::SetDamage()
0x69ffd	832	_ZN10CNom_Plate16CheckCrashBulletEP11CBoss_Plate	CNom_Plate::CheckCrashBullet()
0x6a33d	188	_ZN8CBBullet13SetDamageWallEv	CBBullet::SetDamageWall()
0x6a3f9	198	_ZN10CNom_Plate16CheckCrashBulletEP8CBBullet	CNom_Plate::CheckCrashBullet()
0x6a4c1	424	_ZN10CNom_Plate13CheckCrashNomEP8CBBullet	CNom_Plate::CheckCrashNom()
0x6a669	92	_ZN7CVectorIP8CNBulletE10AddElementES1_	CVector()
0x6a6c5	30	_ZN10CNom_Plate10FireBulletEv	CNom_Plate::FireBullet()
0x6a6e5	196	_ZN10CNom_Plate13DoLogicBulletEv	CNom_Plate::DoLogicBullet()
0x6a7a9	44	_ZN7CVectorIP8CNBulletED1Ev	CVector()
0x6a7d5	92	_ZN7CVectorIP8CBBulletE10AddElementES1_	CVector()
0x6a831	1308	_ZN11CBoss_Plate10FireBulletEi	CBoss_Plate::FireBullet()
0x6ad4d	44	_ZN7CVectorIP8CBBulletED1Ev	CVector()
0x6ad79	76	_ZN10CNom_Plate12SetMoveStateEi	CNom_Plate::SetMoveState()
0x6adc5	40	_ZN10CNom_Plate15ChangeDirectionEv	CNom_Plate::ChangeDirection()
0x6aded	220	_ZN10CNom_Plate4DrawEii10enumDrawOPil	CNom_Plate::Draw()
0x6aec9	148	_ZN8CBBullet4DrawEii	CBBullet::Draw()
0x6af5d	188	_ZN8CBBullet7DoLogicEv	CBBullet::DoLogic()
0x6b019	292	_ZN10CNom_Plate7DoLogicEv	CNom_Plate::DoLogic()
0x6b13d	96	_ZN10CNom_Plate4InitEv	CNom_Plate::Init()
0x6b19d	156	_ZN10CNom_PlateC1Ev	CNom_Plate()
0x6b239	156	_ZN10CNom_PlateC2Ev	CNom_Plate()
0x6b2d5	236	_ZN8CBBulletC1EP7CPzxMgriiiii	CBBullet()
0x6b3c1	236	_ZN8CBBulletC2EP7CPzxMgriiiii	CBBullet()
0x6b4ad	324	_ZN11CBoss_Plate8SetStateEh	CBoss_Plate::SetState()
0x6b5f1	204	_ZN11CBoss_Plate4InitEv	CBoss_Plate::Init()
0x6b6bd	136	_ZN11CBoss_PlateC1Ev	CBoss_Plate()
0x6b745	136	_ZN11CBoss_PlateC2Ev	CBoss_Plate()
0x6b7cd	292	_ZN11CBoss_Plate8DrawBossEii	CBoss_Plate::DrawBoss()
0x6b8f1	934	_ZN11CBoss_Plate11SetMoveTypeEi	CBoss_Plate::SetMoveType()
0x6bc99	336	_ZN7CMeteor4DrawEii	CMeteor::Draw()
0x6bde9	2256	_ZN11CBoss_Plate14DoLogicObjectsEv	CBoss_Plate::DoLogicObjects()
0x6c6b9	712	_ZN11CBoss_Plate11DoLogicMoveEv	CBoss_Plate::DoLogicMove()
0x6c981	1040	_ZN11CBoss_Plate7DoLogicEv	CBoss_Plate::DoLogic()
0x6cd91	10	_ZN16CBossScene_Plate10AppSuspendEv	CBossScene_Plate::AppSuspend()
0x6cd9c	20	_ZThn8_N16CBossScene_Plate15ProcessGameoverEv	_ZThn8_N16CBossScene_Plate15ProcessGameoverEv
0x6cdb1	76	_ZN16CBossScene_Plate15ProcessGameoverEv	CBossScene_Plate::ProcessGameover()
0x6cdfc	20	_ZThn8_N16CBossScene_Plate5ResetEh	_ZThn8_N16CBossScene_Plate5ResetEh
0x6ce11	164	_ZN16CBossScene_Plate5ResetEh	CBossScene_Plate::Reset()
0x6ceb5	248	_ZN16CBossScene_Plate9DrawSceneEii	CBossScene_Plate::DrawScene()
0x6cfad	1568	_ZN16CBossScene_Plate8drawBackEii	CBossScene_Plate::drawBack()
0x6d5cd	50	_ZN16CBossScene_Plate15DoLogicFightingEv	CBossScene_Plate::DoLogicFighting()
0x6d601	260	_ZN16CBossScene_Plate7DoLogicEv	CBossScene_Plate::DoLogic()
0x6d705	92	_ZN16CBossScene_Plate14EvPointerPressE12GxPointerPos	CBossScene_Plate::EvPointerPress()
0x6d761	80	_ZN16CBossScene_Plate10KeyPressedEi	CBossScene_Plate::KeyPressed()
0x6d7b1	38	_ZN16CBossScene_Plate9AppResumeEv	CBossScene_Plate::AppResume()
0x6d7d9	312	_ZN16CBossScene_Plate4InitEv	CBossScene_Plate::Init()
0x6d911	88	_ZN16CBossScene_PlateC1Eh	CBossScene_Plate()
0x6d969	88	_ZN16CBossScene_PlateC2Eh	CBossScene_Plate()
0x6d9c1	40	_ZN7CMeteorD0Ev	CMeteor()
0x6d9e9	96	_ZN11CBoss_PlateD1Ev	CBoss_Plate()
0x6da49	76	_ZN16CBossScene_Plate6DeleteEv	CBossScene_Plate::Delete()
0x6da95	52	_ZN16CBossScene_PlateD1Ev	CBossScene_Plate()
0x6dac9	18	_ZN16CBossScene_PlateD0Ev	CBossScene_Plate()
0x6dadd	52	_ZN16CBossScene_PlateD2Ev	CBossScene_Plate()
0x6db11	48	_ZN7CVectorIP8CBBulletED0Ev	CVector()
0x6db41	96	_ZN11CBoss_PlateD2Ev	CBoss_Plate()
0x6dba1	48	_ZN7CVectorIP8CNBulletED0Ev	CVector()
0x6dbd1	84	_ZN10CNom_PlateD1Ev	CNom_Plate()
0x6dc25	18	_ZN10CNom_PlateD0Ev	CNom_Plate()
0x6dc39	84	_ZN10CNom_PlateD2Ev	CNom_Plate()
0x6dc8d	2	_ZN16CBossScene_Rival8MsgCrackEP8CMessage	CBossScene_Rival::MsgCrack()
0x6dc91	6	_ZN16CBossScene_Rival16EvPointerReleaseE12GxPointerPos	CBossScene_Rival::EvPointerRelease()
0x6dc99	766	_ZN16CBossScene_Rival11DoLogicBackEi	CBossScene_Rival::DoLogicBack()
0x6df99	18	_ZN16CBossScene_Rival17ActiveShakeScreenEii	CBossScene_Rival::ActiveShakeScreen()
0x6dfad	26	_ZN16CBossScene_Rival13DoShakeScreenEv	CBossScene_Rival::DoShakeScreen()
0x6dfc9	34	_ZN16CBossScene_Rival8SetLevelEi	CBossScene_Rival::SetLevel()
0x6dfed	26	_ZN16CBossScene_Rival26DoFSM_SCENE_BOSSGAME_INTROEv	CBossScene_Rival::DoFSM_SCENE_BOSSGAME_INTRO()
0x6e009	60	_ZN16CBossScene_Rival26DoFSM_SCENE_BOSSGAME_PAUSEEv	CBossScene_Rival::DoFSM_SCENE_BOSSGAME_PAUSE()
0x6e045	26	_ZN16CBossScene_Rival27DoFSM_SCENE_BOSSGAME_ENDINGEv	CBossScene_Rival::DoFSM_SCENE_BOSSGAME_ENDING()
0x6e061	34	_ZN16CBossScene_Rival24DoFSM_SCENE_BOSSGAME_RUNEv	CBossScene_Rival::DoFSM_SCENE_BOSSGAME_RUN()
0x6e085	136	_ZN16CBossScene_Rival28DoFSM_SCENE_BOSSGAME_FADEOUTEv	CBossScene_Rival::DoFSM_SCENE_BOSSGAME_FADEOUT()
0x6e10c	20	_ZThn8_N16CBossScene_Rival9EndScriptEv	_ZThn8_N16CBossScene_Rival9EndScriptEv
0x6e121	84	_ZN16CBossScene_Rival9EndScriptEv	CBossScene_Rival::EndScript()
0x6e175	10	_ZN16CBossScene_Rival10AppSuspendEv	CBossScene_Rival::AppSuspend()
0x6e181	154	_ZN16CBossScene_Rival27DoFSM_SCENE_BOSSGAME_FADEINEv	CBossScene_Rival::DoFSM_SCENE_BOSSGAME_FADEIN()
0x6e21c	20	_ZThn96_N16CBossScene_Rival10DoFSMLogicEv	_ZThn96_N16CBossScene_Rival10DoFSMLogicEv
0x6e231	72	_ZN16CBossScene_Rival10DoFSMLogicEv	CBossScene_Rival::DoFSMLogic()
0x6e279	56	_ZN16CBossScene_Rival28InitFSM_SCENE_BOSSGAME_INTROEv	CBossScene_Rival::InitFSM_SCENE_BOSSGAME_INTRO()
0x6e2b1	64	_ZN16CBossScene_Rival29InitFSM_SCENE_BOSSGAME_ENDINGEv	CBossScene_Rival::InitFSM_SCENE_BOSSGAME_ENDING()
0x6e2f1	66	_ZN16CBossScene_Rival9ClearGameEv	CBossScene_Rival::ClearGame()
0x6e334	20	_ZThn8_N16CBossScene_Rival5ResetEh	_ZThn8_N16CBossScene_Rival5ResetEh
0x6e349	144	_ZN16CBossScene_Rival5ResetEh	CBossScene_Rival::Reset()
0x6e3d9	22	_ZN16CBossScene_Rival10GetBossValEi	CBossScene_Rival::GetBossVal()
0x6e3f1	18	_ZN16CBossScene_Rival9GetNomValEi	CBossScene_Rival::GetNomVal()
0x6e405	1756	_ZN16CBossScene_Rival31InitFSM_SCENE_BOSSGAME_LOAD_RESEv	CBossScene_Rival::InitFSM_SCENE_BOSSGAME_LOAD_RES()
0x6eae0	20	_ZThn96_N16CBossScene_Rival12InitFsmLogicEv	_ZThn96_N16CBossScene_Rival12InitFsmLogicEv
0x6eaf5	104	_ZN16CBossScene_Rival12InitFsmLogicEv	CBossScene_Rival::InitFsmLogic()
0x6eb5d	18	_ZN16CBossScene_Rival12GetGlobalValEi	CBossScene_Rival::GetGlobalVal()
0x6eb71	80	_ZN16CBossScene_Rival15DrawShakeScreenEv	CBossScene_Rival::DrawShakeScreen()
0x6ebc1	100	_ZN16CBossScene_Rival7DoLogicEv	CBossScene_Rival::DoLogic()
0x6ec25	376	_ZN16CBossScene_Rival9DrawSceneEii	CBossScene_Rival::DrawScene()
0x6ed9d	516	_ZN16CBossScene_Rival8DrawBackEii	CBossScene_Rival::DrawBack()
0x6efa1	376	_ZN16CBossScene_Rival14EvPointerPressE12GxPointerPos	CBossScene_Rival::EvPointerPress()
0x6f119	16	_ZN16CBossScene_Rival11KeyReleasedEi	CBossScene_Rival::KeyReleased()
0x6f129	38	_ZN16CBossScene_Rival9AppResumeEv	CBossScene_Rival::AppResume()
0x6f151	64	_ZN16CBossScene_Rival10KeyPressedEi	CBossScene_Rival::KeyPressed()
0x6f191	432	_ZN16CBossScene_Rival6DeleteEv	CBossScene_Rival::Delete()
0x6f341	164	_ZN16CBossScene_Rival4InitEv	CBossScene_Rival::Init()
0x6f3e4	20	_ZThn96_N16CBossScene_RivalD1Ev	_ZThn96_N16CBossScene_RivalD1Ev
0x6f3f9	64	_ZN16CBossScene_RivalD1Ev	CBossScene_Rival()
0x6f438	20	_ZThn96_N16CBossScene_RivalD0Ev	_ZThn96_N16CBossScene_RivalD0Ev
0x6f44d	18	_ZN16CBossScene_RivalD0Ev	CBossScene_Rival()
0x6f461	64	_ZN16CBossScene_RivalD2Ev	CBossScene_Rival()
0x6f4a1	160	_ZN16CBossScene_RivalC1Ehh	CBossScene_Rival()
0x6f541	160	_ZN16CBossScene_RivalC2Ehh	CBossScene_Rival()
0x6f5e1	2	_ZN19CBossScene_Silkworm8MsgCrackEP8CMessage	CBossScene_Silkworm::MsgCrack()
0x6f5e5	2	_ZN19CBossScene_Silkworm11KeyReleasedEi	CBossScene_Silkworm::KeyReleased()
0x6f5e9	26	_ZN19CBossScene_Silkworm16EvPointerReleaseE12GxPointerPos	CBossScene_Silkworm::EvPointerRelease()
0x6f605	46	_ZN19CBossScene_Silkworm11DoLogicBackEv	CBossScene_Silkworm::DoLogicBack()
0x6f635	2	_ZN19CBossScene_Silkworm15DoLogicFightingEv	CBossScene_Silkworm::DoLogicFighting()
0x6f639	320	_ZN19CBossScene_Silkworm14DoScrollScreenEv	CBossScene_Silkworm::DoScrollScreen()
0x6f779	10	_ZN19CBossScene_Silkworm8SetDelayEi	CBossScene_Silkworm::SetDelay()
0x6f785	186	_ZN14CBoss_Silkworm15ClearBossVectorEv	CBoss_Silkworm::ClearBossVector()
0x6f841	64	_ZN14CBoss_Silkworm9DrawRocksEii	CBoss_Silkworm::DrawRocks()
0x6f881	122	_ZN14CBoss_Silkworm12ClearObjectsEv	CBoss_Silkworm::ClearObjects()
0x6f8fd	60	_ZN14CBoss_Silkworm13FlyingObjectsEv	CBoss_Silkworm::FlyingObjects()
0x6f939	252	_ZN14CBoss_Silkworm11DrawObjectsEb	CBoss_Silkworm::DrawObjects()
0x6fa35	56	_ZN13CNom_SilkwormD2Ev	CNom_Silkworm()
0x6fa6d	56	_ZN13CNom_SilkwormD1Ev	CNom_Silkworm()
0x6faa5	24	_ZN13CNom_Silkworm11IsDamageAniEv	CNom_Silkworm::IsDamageAni()
0x6fabd	12	_ZN5CRock9SetAttackEv	CRock::SetAttack()
0x6fac9	88	_ZN5CRock4DrawEii10enumDrawOPil	CRock::Draw()
0x6fb21	116	_ZN16CObject_Silkworm4DrawEii10enumDrawOPil	CObject_Silkworm::Draw()
0x6fb95	40	_ZN16CObject_Silkworm8SetDeathEv	CObject_Silkworm::SetDeath()
0x6fbbd	50	_ZN14CBoss_Silkworm12DeathObjectsEv	CBoss_Silkworm::DeathObjects()
0x6fbf1	104	_ZN5CRock4InitEv	CRock::Init()
0x6fc59	52	_ZN13CSilkWormBody8SetAngryEv	CSilkWormBody::SetAngry()
0x6fc8d	38	_ZN14CBoss_Silkworm10SetFastRunEv	CBoss_Silkworm::SetFastRun()
0x6fcb5	84	_ZN5CRock14GetBondingRectEP7TGXRECTii	CRock::GetBondingRect()
0x6fd09	96	_ZN13CSilkWormBody15GetBoundingRectEP7TGXRECTii	CSilkWormBody::GetBoundingRect()
0x6fd69	148	_ZN13CNom_Silkworm14GetBondingRectEP7TGXRECTii	CNom_Silkworm::GetBondingRect()
0x6fdfd	236	_ZN16CObject_Silkworm10CheckCrashEP7TGXRECT	CObject_Silkworm::CheckCrash()
0x6fee9	256	_ZN5CRock7DoLogicEv	CRock::DoLogic()
0x6ffe9	32	_ZN16CObject_SilkwormD1Ev	CObject_Silkworm()
0x70009	18	_ZN16CObject_SilkwormD0Ev	CObject_Silkworm()
0x7001d	32	_ZN16CObject_SilkwormD2Ev	CObject_Silkworm()
0x7003d	32	_ZN5CRockD1Ev	CRock()
0x7005d	18	_ZN5CRockD0Ev	CRock()
0x70071	32	_ZN5CRockD2Ev	CRock()
0x70091	32	_ZN13CSilkWormBodyD1Ev	CSilkWormBody()
0x700b1	18	_ZN13CSilkWormBodyD0Ev	CSilkWormBody()
0x700c5	32	_ZN13CSilkWormBodyD2Ev	CSilkWormBody()
0x700e5	40	_ZN13CSilkWormBodyC1EP7CPzxMgri	CSilkWormBody()
0x7010d	40	_ZN13CSilkWormBodyC2EP7CPzxMgri	CSilkWormBody()
0x70135	80	_ZN13CNom_Silkworm4InitEv	CNom_Silkworm::Init()
0x70185	236	_ZN16CObject_SilkwormC1EP7CPzxMgrh	CObject_Silkworm()
0x70271	236	_ZN16CObject_SilkwormC2EP7CPzxMgrh	CObject_Silkworm()
0x7035d	96	_ZN5CRockC1EP7CPzxMgri	CRock()
0x703bd	96	_ZN5CRockC2EP7CPzxMgri	CRock()
0x7041d	152	_ZN13CNom_Silkworm9SetDamageEv	CNom_Silkworm::SetDamage()
0x704b5	300	_ZN13CNom_Silkworm8SetStateEi	CNom_Silkworm::SetState()
0x705e1	132	_ZN14CBoss_Silkworm8SetStateEh	CBoss_Silkworm::SetState()
0x70665	68	_ZN14CBoss_Silkworm9SetDamageEv	CBoss_Silkworm::SetDamage()
0x706a9	56	_ZN13CSilkWormBody16IsDamageAnimaionEv	CSilkWormBody::IsDamageAnimaion()
0x706e1	280	_ZN13CNom_Silkworm4DrawEii	CNom_Silkworm::Draw()
0x707f9	184	_ZN13CNom_SilkwormC1Ev	CNom_Silkworm()
0x708b1	184	_ZN13CNom_SilkwormC2Ev	CNom_Silkworm()
0x70969	252	_ZN13CSilkWormBody8DrawBodyEii	CSilkWormBody::DrawBody()
0x70a65	68	_ZN14CBoss_Silkworm8SetAngryEv	CBoss_Silkworm::SetAngry()
0x70aa9	92	_ZN7CVectorIP16CObject_SilkwormE10AddElementES1_	CVector()
0x70b05	118	_ZN14CBoss_Silkworm10AddObjectsEiii	CBoss_Silkworm::AddObjects()
0x70b7d	112	_ZN13CSilkWormBody7SetWormEv	CSilkWormBody::SetWorm()
0x70bed	120	_ZN13CSilkWormBody9SetAttackEv	CSilkWormBody::SetAttack()
0x70c65	92	_ZN7CVectorIP5CRockE10AddElementES1_	CVector()
0x70cc1	84	_ZN14CBoss_Silkworm7SetRockEv	CBoss_Silkworm::SetRock()
0x70d15	200	_ZN14CBoss_Silkworm10SetRemainsEii	CBoss_Silkworm::SetRemains()
0x70ddd	300	_ZN13CSilkWormBody7DoLogicEv	CSilkWormBody::DoLogic()
0x70f09	44	_ZN7CVectorIP16CObject_SilkwormED1Ev	CVector()
0x70f35	44	_ZN7CVectorIP5CRockED1Ev	CVector()
0x70f61	44	_ZN7CVectorIP13CSilkWormBodyED1Ev	CVector()
0x70f8d	92	_ZN7CVectorIP13CSilkWormBodyE10AddElementES1_	CVector()
0x70fe9	472	_ZN14CBoss_Silkworm8DrawBossEii	CBoss_Silkworm::DrawBoss()
0x711c1	160	_ZN14CBoss_Silkworm4InitEv	CBoss_Silkworm::Init()
0x71261	188	_ZN14CBoss_Silkworm11GetBackPosYEiRiS0_	CBoss_Silkworm::GetBackPosY()
0x7131d	384	_ZN16CObject_Silkworm7DoLogicEv	CObject_Silkworm::DoLogic()
0x7149d	364	_ZN13CNom_Silkworm11CheckObjectEP16CObject_Silkworm	CNom_Silkworm::CheckObject()
0x71609	520	_ZN14CBoss_Silkworm14DoLogicObejctsEv	CBoss_Silkworm::DoLogicObejcts()
0x71811	380	_ZN13CNom_Silkworm7DoLogicEv	CNom_Silkworm::DoLogic()
0x7198d	524	_ZN14CBoss_SilkwormC1Ev	CBoss_Silkworm()
0x71b99	524	_ZN14CBoss_SilkwormC2Ev	CBoss_Silkworm()
0x71da5	10	_ZN19CBossScene_Silkworm10AppSuspendEv	CBossScene_Silkworm::AppSuspend()
0x71db0	20	_ZThn8_N19CBossScene_Silkworm15ProcessGameoverEv	_ZThn8_N19CBossScene_Silkworm15ProcessGameoverEv
0x71dc5	76	_ZN19CBossScene_Silkworm15ProcessGameoverEv	CBossScene_Silkworm::ProcessGameover()
0x71e10	20	_ZThn8_N19CBossScene_Silkworm5ResetEh	_ZThn8_N19CBossScene_Silkworm5ResetEh
0x71e25	128	_ZN19CBossScene_Silkworm5ResetEh	CBossScene_Silkworm::Reset()
0x71ea5	380	_ZN19CBossScene_Silkworm9DrawSceneEii	CBossScene_Silkworm::DrawScene()
0x72021	880	_ZN19CBossScene_Silkworm8drawBackEii	CBossScene_Silkworm::drawBack()
0x72391	92	_ZN19CBossScene_Silkworm14EvPointerPressE12GxPointerPos	CBossScene_Silkworm::EvPointerPress()
0x723ec	20	_ZThn8_N19CBossScene_Silkworm9EndScriptEv	_ZThn8_N19CBossScene_Silkworm9EndScriptEv
0x72401	30	_ZN19CBossScene_Silkworm9EndScriptEv	CBossScene_Silkworm::EndScript()
0x72421	118	_ZN19CBossScene_Silkworm10KeyPressedEi	CBossScene_Silkworm::KeyPressed()
0x72499	38	_ZN19CBossScene_Silkworm9AppResumeEv	CBossScene_Silkworm::AppResume()
0x724c1	336	_ZN19CBossScene_Silkworm4InitEv	CBossScene_Silkworm::Init()
0x72611	88	_ZN19CBossScene_SilkwormC1Eh	CBossScene_Silkworm()
0x72669	88	_ZN19CBossScene_SilkwormC2Eh	CBossScene_Silkworm()
0x726c1	48	_ZN7CVectorIP13CSilkWormBodyED0Ev	CVector()
0x726f1	48	_ZN7CVectorIP5CRockED0Ev	CVector()
0x72721	168	_ZN14CBoss_SilkwormD1Ev	CBoss_Silkworm()
0x727c9	98	_ZN19CBossScene_Silkworm6DeleteEv	CBossScene_Silkworm::Delete()
0x7282d	52	_ZN19CBossScene_SilkwormD1Ev	CBossScene_Silkworm()
0x72861	18	_ZN19CBossScene_SilkwormD0Ev	CBossScene_Silkworm()
0x72875	52	_ZN19CBossScene_SilkwormD2Ev	CBossScene_Silkworm()
0x728a9	168	_ZN14CBoss_SilkwormD2Ev	CBoss_Silkworm()
0x72951	48	_ZN7CVectorIP16CObject_SilkwormED0Ev	CVector()
0x72981	360	_ZN14CBoss_Silkworm13SetWormAttackEv	CBoss_Silkworm::SetWormAttack()
0x72ae9	448	_ZN14CBoss_Silkworm14SetSporeAttackEb	CBoss_Silkworm::SetSporeAttack()
0x72ca9	268	_ZN14CBoss_Silkworm17DoLogicBossAttackEv	CBoss_Silkworm::DoLogicBossAttack()
0x72db5	884	_ZN14CBoss_Silkworm7DoLogicEv	CBoss_Silkworm::DoLogic()
0x73129	276	_ZN19CBossScene_Silkworm7DoLogicEv	CBossScene_Silkworm::DoLogic()
0x7323d	2	_ZN16CBossScene_Snake8MsgCrackEP8CMessage	CBossScene_Snake::MsgCrack()
0x73241	2	_ZN16CBossScene_Snake11KeyReleasedEi	CBossScene_Snake::KeyReleased()
0x73245	6	_ZN16CBossScene_Snake16EvPointerReleaseE12GxPointerPos	CBossScene_Snake::EvPointerRelease()
0x7324d	12	_ZN16CBossScene_Snake8SetDelayEi	CBossScene_Snake::SetDelay()
0x73259	180	_ZN16CBossScene_Snake12DrawObstacleEii	CBossScene_Snake::DrawObstacle()
0x7330d	64	_ZN6CSnake13DrawEventBossEv	CSnake::DrawEventBoss()
0x7334d	100	_ZN6CSnake11ClearBulletEv	CSnake::ClearBullet()
0x733b1	44	_ZN9CBullet_SD2Ev	CBullet_S()
0x733dd	44	_ZN9CBullet_SD1Ev	CBullet_S()
0x73409	24	_ZN9CBullet_S17CaculateCrashRectEv	CBullet_S::CaculateCrashRect()
0x73421	20	_ZN9CBullet_S12IsAttackRectEv	CBullet_S::IsAttackRect()
0x73435	210	_ZN6CSnake19DoFSM_SNAKE_MOVEOUTEv	CSnake::DoFSM_SNAKE_MOVEOUT()
0x73509	18	_ZN9CBullet_SD0Ev	CBullet_S()
0x7351d	32	_ZN15CSnakeAniObjectD1Ev	CSnakeAniObject()
0x7353d	52	_ZN10CNom_SnakeD1Ev	CNom_Snake()
0x73571	18	_ZN10CNom_SnakeD0Ev	CNom_Snake()
0x73585	52	_ZN10CNom_SnakeD2Ev	CNom_Snake()
0x735b9	64	_ZN10CNom_Snake17GetNomBoundingBoxEP7TGXRECT	CNom_Snake::GetNomBoundingBox()
0x735f9	78	_ZN10CNom_Snake17GetCurBoundingBoxEii	CNom_Snake::GetCurBoundingBox()
0x73649	118	_ZN6CSnake21InitFSM_SNAKE_BEZIER2Ev	CSnake::InitFSM_SNAKE_BEZIER2()
0x736c1	48	_ZN6CSnake9SetDamageEv	CSnake::SetDamage()
0x736f1	132	_ZN10CNom_Snake4DrawEii10enumDrawOPil	CNom_Snake::Draw()
0x73775	148	_ZN9CBullet_S4DrawEii	CBullet_S::Draw()
0x73809	110	_ZN6CSnake15DrawBulletFrontEii	CSnake::DrawBulletFront()
0x73879	212	_ZN6CSnake9DrawFrontEii	CSnake::DrawFront()
0x7394d	98	_ZN6CSnake14DrawBulletBackEii	CSnake::DrawBulletBack()
0x739b1	204	_ZN6CSnake8DrawBackEii	CSnake::DrawBack()
0x73a7d	152	_ZN6CSnake17DoFSM_SNAKE_DELAYEv	CSnake::DoFSM_SNAKE_DELAY()
0x73b15	192	_ZN6CSnake21InitFSM_SNAKE_STANDBYEv	CSnake::InitFSM_SNAKE_STANDBY()
0x73bd5	776	_ZN6CSnake20InitFSM_SNAKE_ATTACKEv	CSnake::InitFSM_SNAKE_ATTACK()
0x73edd	112	_ZN15CSnakeAniObject17GetCurBoundingBoxEii	CSnakeAniObject::GetCurBoundingBox()
0x73f4d	156	_ZN15CSnakeAniObject6DrawN4Eii11eDrawOp_Nomiiii	CSnakeAniObject::DrawN4()
0x73fe9	52	_ZN15CSnakeAniObjectC1EP6CSnake	CSnakeAniObject()
0x7401d	52	_ZN15CSnakeAniObjectC2EP6CSnake	CSnakeAniObject()
0x74051	190	_ZN6CSnake19DoFSM_SNAKE_BEZIER2Ev	CSnake::DoFSM_SNAKE_BEZIER2()
0x74111	250	_ZN6CSnake18DoFSM_SNAKE_STEREOEv	CSnake::DoFSM_SNAKE_STEREO()
0x7420d	238	_ZN6CSnake19DoFSM_SNAKE_BEZIER3Ev	CSnake::DoFSM_SNAKE_BEZIER3()
0x742fd	206	_ZN6CSnake26DoFSM_SNAKE_BEZIER3_REWINDEv	CSnake::DoFSM_SNAKE_BEZIER3_REWIND()
0x743cd	92	_ZN7CVectorIP15CSnakeAniObjectE10AddElementES1_	CVector()
0x74429	508	_ZN6CSnake18InitFSM_SNAKE_INITEv	CSnake::InitFSM_SNAKE_INIT()
0x74625	92	_ZN7CVectorIP9CBullet_SE10AddElementES1_	CVector()
0x74681	44	_ZN7CVectorIP9CBullet_SED1Ev	CVector()
0x746ad	44	_ZN7CVectorIP15CSnakeAniObjectED1Ev	CVector()
0x746d9	472	_ZN6CSnake20InitFSM_SNAKE_STEREOEv	CSnake::InitFSM_SNAKE_STEREO()
0x748b1	92	_ZN6CSnake21InitFSM_SNAKE_BEZIER3Ev	CSnake::InitFSM_SNAKE_BEZIER3()
0x7490d	18	_ZN9CBullet_S8SetDeathEv	CBullet_S::SetDeath()
0x74921	88	_ZN6CSnake14IsHeadInScreenEv	CSnake::IsHeadInScreen()
0x74979	168	_ZN9CBullet_SC1EP7CPzxMgrP15CSnakeAniObjecti	CBullet_S()
0x74a21	160	_ZN6CSnake20InitFSM_SNAKE_BULLETEv	CSnake::InitFSM_SNAKE_BULLET()
0x74ac1	132	_ZN6CSnake12InitFsmLogicEv	CSnake::InitFsmLogic()
0x74b45	168	_ZN9CBullet_SC2EP7CPzxMgrP15CSnakeAniObjecti	CBullet_S()
0x74bed	364	_ZN16CBossScene_Snake11SetObstacleEi	CBossScene_Snake::SetObstacle()
0x74d59	224	_ZN6CSnakeC1Ev	CSnake()
0x74e39	224	_ZN6CSnakeC2Ev	CSnake()
0x74f19	88	_ZN16CBossScene_Snake19ActiveEnlargeScreenEiill	CBossScene_Snake::ActiveEnlargeScreen()
0x74f71	264	_ZN16CBossScene_Snake9SetEffectEiii	CBossScene_Snake::SetEffect()
0x75079	500	_ZN10CNom_Snake8SetStateEh	CNom_Snake::SetState()
0x7526d	248	_ZN10CNom_Snake7DoLogicEv	CNom_Snake::DoLogic()
0x75365	64	_ZN10CNom_Snake4InitEv	CNom_Snake::Init()
0x753a5	128	_ZN10CNom_SnakeC1Ev	CNom_Snake()
0x75425	128	_ZN10CNom_SnakeC2Ev	CNom_Snake()
0x754a5	416	_ZN16CBossScene_Snake15DoLogicObstacleEv	CBossScene_Snake::DoLogicObstacle()
0x75645	620	_ZN15CSnakeAniObject7DoLogicEv	CSnakeAniObject::DoLogic()
0x758b1	676	_ZN9CBullet_S7DoLogicEv	CBullet_S::DoLogic()
0x75b55	114	_ZN6CSnake13DoLogicBulletEv	CSnake::DoLogicBullet()
0x75bc9	496	_ZN6CSnake7DoLogicEv	CSnake::DoLogic()
0x75db9	10	_ZN16CBossScene_Snake10AppSuspendEv	CBossScene_Snake::AppSuspend()
0x75dc4	20	_ZThn8_N16CBossScene_Snake15ProcessGameoverEv	_ZThn8_N16CBossScene_Snake15ProcessGameoverEv
0x75dd9	76	_ZN16CBossScene_Snake15ProcessGameoverEv	CBossScene_Snake::ProcessGameover()
0x75e24	20	_ZThn8_N16CBossScene_Snake5ResetEh	_ZThn8_N16CBossScene_Snake5ResetEh
0x75e39	164	_ZN16CBossScene_Snake5ResetEh	CBossScene_Snake::Reset()
0x75edd	348	_ZN16CBossScene_Snake9DrawSceneEii	CBossScene_Snake::DrawScene()
0x76039	904	_ZN16CBossScene_Snake8drawBackEii	CBossScene_Snake::drawBack()
0x763c1	92	_ZN16CBossScene_Snake14EvPointerPressE12GxPointerPos	CBossScene_Snake::EvPointerPress()
0x7641d	122	_ZN16CBossScene_Snake10KeyPressedEi	CBossScene_Snake::KeyPressed()
0x76499	38	_ZN16CBossScene_Snake9AppResumeEv	CBossScene_Snake::AppResume()
0x764c1	308	_ZN16CBossScene_Snake6DeleteEv	CBossScene_Snake::Delete()
0x765f5	52	_ZN16CBossScene_SnakeD1Ev	CBossScene_Snake()
0x76629	18	_ZN16CBossScene_SnakeD0Ev	CBossScene_Snake()
0x7663d	52	_ZN16CBossScene_SnakeD2Ev	CBossScene_Snake()
0x76671	40	_ZN15CSnakeAniObjectD0Ev	CSnakeAniObject()
0x76699	48	_ZN7CVectorIP15CSnakeAniObjectED0Ev	CVector()
0x766c9	244	_ZN6CSnakeD1Ev	CSnake()
0x767bd	18	_ZN6CSnakeD0Ev	CSnake()
0x767d1	244	_ZN6CSnakeD2Ev	CSnake()
0x768c5	48	_ZN7CVectorIP9CBullet_SED0Ev	CVector()
0x768f5	164	_ZN6CSnake13SetStereoMoveEib	CSnake::SetStereoMove()
0x76999	1062	_ZN6CSnake15SetBulletAttackEi	CSnake::SetBulletAttack()
0x76dc1	376	_ZN16CBossScene_Snake12SetGameStateEi	CBossScene_Snake::SetGameState()
0x76f39	460	_ZN16CBossScene_Snake4InitEv	CBossScene_Snake::Init()
0x77105	88	_ZN16CBossScene_SnakeC1Eh	CBossScene_Snake()
0x7715d	88	_ZN16CBossScene_SnakeC2Eh	CBossScene_Snake()
0x771b5	1450	_ZN6CSnake13SetRushAttackEi	CSnake::SetRushAttack()
0x77761	680	_ZN16CBossScene_Snake15DoLogicFightingEv	CBossScene_Snake::DoLogicFighting()
0x77a09	304	_ZN16CBossScene_Snake7DoLogicEv	CBossScene_Snake::DoLogic()
0x77b39	2504	_ZN6CSnake18DoFSM_SNAKE_ATTACKEv	CSnake::DoFSM_SNAKE_ATTACK()
0x78501	92	_ZN6CSnake10DoFSMLogicEv	CSnake::DoFSMLogic()
0x7855d	30	_ZN14CBoss_SpaceGod28PushFSM_BOSS_SPACEGOD_NORMALEv	CBoss_SpaceGod::PushFSM_BOSS_SPACEGOD_NORMAL()
0x7857d	4	_ZN11CEnergyWave10SetDamagedEb	CEnergyWave::SetDamaged()
0x78581	4	_ZN16CObject_SpaceGod7DoLogicEv	CObject_SpaceGod::DoLogic()
0x78585	2	_ZN16CObject_SpaceGod4DrawEii	CObject_SpaceGod::Draw()
0x78589	6	_ZN16CObject_SpaceGod10SetDamagedEb	CObject_SpaceGod::SetDamaged()
0x78591	8	_ZN16CObject_SpaceGod8SetDeathEv	CObject_SpaceGod::SetDeath()
0x78599	86	_ZN19CBossScene_SpaceGod6DeleteEv	CBossScene_SpaceGod::Delete()
0x785f1	2	_ZN19CBossScene_SpaceGod8MsgCrackEP8CMessage	CBossScene_SpaceGod::MsgCrack()
0x785f5	26	_ZN19CBossScene_SpaceGod16EvPointerReleaseE12GxPointerPos	CBossScene_SpaceGod::EvPointerRelease()
0x78611	10	_ZN19CBossScene_SpaceGod8SetDelayEi	CBossScene_SpaceGod::SetDelay()
0x7861d	34	_ZN14CBoss_SpaceGod11DrawObjectsEv	CBoss_SpaceGod::DrawObjects()
0x78641	100	_ZN14CBoss_SpaceGod12ClearObjectsEv	CBoss_SpaceGod::ClearObjects()
0x786a5	34	_ZN13CNom_SpaceGod12GetRockOnCntEv	CNom_SpaceGod::GetRockOnCnt()
0x786c9	100	_ZN13CNom_SpaceGod9InitWavesEb	CNom_SpaceGod::InitWaves()
0x7872d	68	_ZN14CBoss_SpaceGod26InitFSM_BOSS_SPACEGOD_TOSSEv	CBoss_SpaceGod::InitFSM_BOSS_SPACEGOD_TOSS()
0x78771	46	_ZN13CNom_SpaceGod11IsFireWavesEv	CNom_SpaceGod::IsFireWaves()
0x787a1	46	_ZN13CNom_SpaceGod9DrawWavesEii	CNom_SpaceGod::DrawWaves()
0x787d1	116	_ZN13CNom_SpaceGod12DoLogicWavesEv	CNom_SpaceGod::DoLogicWaves()
0x78845	20	_ZN13CNom_SpaceGod11IsCrashRectEv	CNom_SpaceGod::IsCrashRect()
0x78859	16	_ZN13CNom_SpaceGod9IsHitModeEv	CNom_SpaceGod::IsHitMode()
0x78869	60	_ZN13CNom_SpaceGod13DecHitModeCntEv	CNom_SpaceGod::DecHitModeCnt()
0x788a5	68	_ZN13CNom_SpaceGod11DrawHitModeEv	CNom_SpaceGod::DrawHitMode()
0x788e9	72	_ZN11CEnergyWaveD2Ev	CEnergyWave()
0x78931	72	_ZN11CEnergyWaveD1Ev	CEnergyWave()
0x78979	20	_ZN11CEnergyWave12IsAttackRectEv	CEnergyWave::IsAttackRect()
0x7898d	20	_ZN16CObject_SpaceGod11IsCrashRectEv	CObject_SpaceGod::IsCrashRect()
0x789a1	38	_ZN16CObject_SpaceGod9SetDamageEv	CObject_SpaceGod::SetDamage()
0x789c9	38	_ZN19CFlyingObj_SpaceGod9SetDamageEv	CFlyingObj_SpaceGod::SetDamage()
0x789f1	10	_ZN19CExposeObj_SpaceGod4DrawEii	CExposeObj_SpaceGod::Draw()
0x789fd	14	_ZN19CExposeObj_SpaceGod8SetDeathEv	CExposeObj_SpaceGod::SetDeath()
0x78a0d	10	_ZN13CNom_SpaceGod14DoLogicHitModeEv	CNom_SpaceGod::DoLogicHitMode()
0x78a19	18	_ZN11CEnergyWaveD0Ev	CEnergyWave()
0x78a2d	44	_ZN19CFlyingObj_SpaceGod8SetDeathEv	CFlyingObj_SpaceGod::SetDeath()
0x78a59	18	_ZN11CEnergyWave8SetDeathEv	CEnergyWave::SetDeath()
0x78a6d	78	_ZN19CFlyingObj_SpaceGod4DrawEii	CFlyingObj_SpaceGod::Draw()
0x78abd	324	_ZN14CBoss_SpaceGod8DrawBackEv	CBoss_SpaceGod::DrawBack()
0x78c01	80	_ZN16CObject_SpaceGod17CaculateCrashRectEv	CObject_SpaceGod::CaculateCrashRect()
0x78c51	234	_ZN19CExposeObj_SpaceGod7DoLogicEv	CExposeObj_SpaceGod::DoLogic()
0x78d3d	148	_ZN19CFlyingObj_SpaceGod7DoLogicEv	CFlyingObj_SpaceGod::DoLogic()
0x78dd1	80	_ZN11CEnergyWave17CaculateCrashRectEv	CEnergyWave::CaculateCrashRect()
0x78e21	80	_ZN13CNom_SpaceGod18CalculateCrashRectEv	CNom_SpaceGod::CalculateCrashRect()
0x78e71	44	_ZN16CObject_SpaceGodD1Ev	CObject_SpaceGod()
0x78e9d	18	_ZN16CObject_SpaceGodD0Ev	CObject_SpaceGod()
0x78eb1	44	_ZN16CObject_SpaceGodD2Ev	CObject_SpaceGod()
0x78edd	32	_ZN19CExposeObj_SpaceGodD1Ev	CExposeObj_SpaceGod()
0x78efd	18	_ZN19CExposeObj_SpaceGodD0Ev	CExposeObj_SpaceGod()
0x78f11	32	_ZN19CExposeObj_SpaceGodD2Ev	CExposeObj_SpaceGod()
0x78f31	100	_ZN19CFlyingObj_SpaceGodD1Ev	CFlyingObj_SpaceGod()
0x78f95	18	_ZN19CFlyingObj_SpaceGodD0Ev	CFlyingObj_SpaceGod()
0x78fa9	100	_ZN19CFlyingObj_SpaceGodD2Ev	CFlyingObj_SpaceGod()
0x7900d	92	_ZN16CObject_SpaceGodC1EP7CPzxMgr	CObject_SpaceGod()
0x79069	92	_ZN16CObject_SpaceGodC2EP7CPzxMgr	CObject_SpaceGod()
0x790c5	96	_ZN19CExposeObj_SpaceGodC1EP7CPzxMgrii	CExposeObj_SpaceGod()
0x79125	96	_ZN19CExposeObj_SpaceGodC2EP7CPzxMgrii	CExposeObj_SpaceGod()
0x79185	340	_ZN19CFlyingObj_SpaceGodC1EP7CPzxMgriiib	CFlyingObj_SpaceGod()
0x792d9	340	_ZN19CFlyingObj_SpaceGodC2EP7CPzxMgriiib	CFlyingObj_SpaceGod()
0x7942d	92	_ZN14CBoss_SpaceGod29InitFSM_BOSS_SPACEGOD_MOVEDESEv	CBoss_SpaceGod::InitFSM_BOSS_SPACEGOD_MOVEDES()
0x79489	196	_ZN14CBoss_SpaceGod8DrawHandEv	CBoss_SpaceGod::DrawHand()
0x7954d	304	_ZN11CEnergyWave4DrawEii	CEnergyWave::Draw()
0x7967d	152	_ZN11CEnergyWaveC1EP7CPzxMgrP13CNom_SpaceGodP16CObject_SpaceGod	CEnergyWave()
0x79715	152	_ZN11CEnergyWaveC2EP7CPzxMgrP13CNom_SpaceGodP16CObject_SpaceGod	CEnergyWave()
0x797ad	68	_ZN13CNom_SpaceGod10CheckCrashEP16CObject_SpaceGod	CNom_SpaceGod::CheckCrash()
0x797f1	252	_ZN14CBoss_SpaceGod28InitFSM_BOSS_SPACEGOD_FLYINGEv	CBoss_SpaceGod::InitFSM_BOSS_SPACEGOD_FLYING()
0x798ed	256	_ZN14CBoss_SpaceGod27InitFSM_BOSS_SPACEGOD_PUNCHEv	CBoss_SpaceGod::InitFSM_BOSS_SPACEGOD_PUNCH()
0x799ed	192	_ZN14CBoss_SpaceGod28InitFSM_BOSS_SPACEGOD_HAMMEREv	CBoss_SpaceGod::InitFSM_BOSS_SPACEGOD_HAMMER()
0x79aad	260	_ZN14CBoss_SpaceGod28InitFSM_BOSS_SPACEGOD_FINGEREv	CBoss_SpaceGod::InitFSM_BOSS_SPACEGOD_FINGER()
0x79bb1	228	_ZN14CBoss_SpaceGod9SetDamageEv	CBoss_SpaceGod::SetDamage()
0x79c95	316	_ZN13CNom_SpaceGod8SetStateEh	CNom_SpaceGod::SetState()
0x79dd1	156	_ZN13CNom_SpaceGod10SetHitModeEi	CNom_SpaceGod::SetHitMode()
0x79e6d	104	_ZN14CBoss_SpaceGod28InitFSM_BOSS_SPACEGOD_NORMALEv	CBoss_SpaceGod::InitFSM_BOSS_SPACEGOD_NORMAL()
0x79ed5	108	_ZN14CBoss_SpaceGod27InitFSM_BOSS_SPACEGOD_SHAKEEv	CBoss_SpaceGod::InitFSM_BOSS_SPACEGOD_SHAKE()
0x79f41	56	_ZN14CBoss_SpaceGod10SetAbsorlbEv	CBoss_SpaceGod::SetAbsorlb()
0x79f79	52	_ZN14CBoss_SpaceGod10SetReplectEv	CBoss_SpaceGod::SetReplect()
0x79fad	484	_ZN14CBoss_SpaceGod26DoFSM_BOSS_SPACEGOD_NORMALEv	CBoss_SpaceGod::DoFSM_BOSS_SPACEGOD_NORMAL()
0x7a191	72	_ZN13CNom_SpaceGod4InitEv	CNom_SpaceGod::Init()
0x7a1d9	276	_ZN14CBoss_SpaceGod14DoLogicObjectsEv	CBoss_SpaceGod::DoLogicObjects()
0x7a2ed	86	_ZN19CBossScene_SpaceGod11KeyReleasedEi	CBossScene_SpaceGod::KeyReleased()
0x7a345	1046	_ZN13CNom_SpaceGod4DrawEii10enumDrawOPil	CNom_SpaceGod::Draw()
0x7a75d	92	_ZN7CVectorIP11CEnergyWaveE10AddElementES1_	CVector()
0x7a7b9	44	_ZN7CVectorIP11CEnergyWaveED1Ev	CVector()
0x7a7e5	168	_ZN7CVectorIP16CObject_SpaceGodE13InsertElementES1_i	CVector()
0x7a88d	92	_ZN7CVectorIP16CObject_SpaceGodE10AddElementES1_	CVector()
0x7a8e9	564	_ZN14CBoss_SpaceGod26DoFSM_BOSS_SPACEGOD_FLYINGEv	CBoss_SpaceGod::DoFSM_BOSS_SPACEGOD_FLYING()
0x7ab1d	516	_ZN14CBoss_SpaceGod25DoFSM_BOSS_SPACEGOD_SHAKEEv	CBoss_SpaceGod::DoFSM_BOSS_SPACEGOD_SHAKE()
0x7ad21	44	_ZN7CVectorIP16CObject_SpaceGodED1Ev	CVector()
0x7ad4d	280	_ZN13CNom_SpaceGodC1Ev	CNom_SpaceGod()
0x7ae65	280	_ZN13CNom_SpaceGodC2Ev	CNom_SpaceGod()
0x7af7d	992	_ZN14CBoss_SpaceGod25DoFSM_BOSS_SPACEGOD_PUNCHEv	CBoss_SpaceGod::DoFSM_BOSS_SPACEGOD_PUNCH()
0x7b35d	940	_ZN14CBoss_SpaceGod26DoFSM_BOSS_SPACEGOD_FINGEREv	CBoss_SpaceGod::DoFSM_BOSS_SPACEGOD_FINGER()
0x7b709	452	_ZN14CBoss_SpaceGod24DoFSM_BOSS_SPACEGOD_TOSSEv	CBoss_SpaceGod::DoFSM_BOSS_SPACEGOD_TOSS()
0x7b8cd	304	_ZN14CBoss_SpaceGod26DoFSM_BOSS_SPACEGOD_SHRINKEv	CBoss_SpaceGod::DoFSM_BOSS_SPACEGOD_SHRINK()
0x7b9fd	212	_ZN14CBoss_SpaceGod28InitFSM_BOSS_SPACEGOD_SHRINKEv	CBoss_SpaceGod::InitFSM_BOSS_SPACEGOD_SHRINK()
0x7bad1	348	_ZN14CBoss_SpaceGod20GetTargetBoundingBoxEiRib	CBoss_SpaceGod::GetTargetBoundingBox()
0x7bc2d	544	_ZN11CEnergyWave7SetFireEib	CEnergyWave::SetFire()
0x7be4d	156	_ZN13CNom_SpaceGod8FireWaveEb	CNom_SpaceGod::FireWave()
0x7bee9	1208	_ZN11CEnergyWave7DoLogicEv	CEnergyWave::DoLogic()
0x7c3a1	268	_ZN11CEnergyWaveC1EP7CPzxMgrP13CNom_SpaceGodii	CEnergyWave()
0x7c4ad	1104	_ZN13CNom_SpaceGod7DoLogicEv	CNom_SpaceGod::DoLogic()
0x7c8fd	268	_ZN11CEnergyWaveC2EP7CPzxMgrP13CNom_SpaceGodii	CEnergyWave()
0x7ca09	368	_ZN14CBoss_SpaceGod7DoLogicEv	CBoss_SpaceGod::DoLogic()
0x7cb79	564	_ZN14CBoss_SpaceGodC1Ev	CBoss_SpaceGod()
0x7cdad	564	_ZN14CBoss_SpaceGodC2Ev	CBoss_SpaceGod()
0x7cfe1	10	_ZN19CBossScene_SpaceGod10AppSuspendEv	CBossScene_SpaceGod::AppSuspend()
0x7cfec	20	_ZThn8_N19CBossScene_SpaceGod15ProcessGameoverEv	_ZThn8_N19CBossScene_SpaceGod15ProcessGameoverEv
0x7d001	76	_ZN19CBossScene_SpaceGod15ProcessGameoverEv	CBossScene_SpaceGod::ProcessGameover()
0x7d04c	20	_ZThn8_N19CBossScene_SpaceGod5ResetEh	_ZThn8_N19CBossScene_SpaceGod5ResetEh
0x7d061	140	_ZN19CBossScene_SpaceGod5ResetEh	CBossScene_SpaceGod::Reset()
0x7d0ed	168	_ZN19CBossScene_SpaceGod9DrawSceneEii	CBossScene_SpaceGod::DrawScene()
0x7d195	1252	_ZN19CBossScene_SpaceGod8drawBackEii	CBossScene_SpaceGod::drawBack()
0x7d679	92	_ZN19CBossScene_SpaceGod14EvPointerPressE12GxPointerPos	CBossScene_SpaceGod::EvPointerPress()
0x7d6d5	154	_ZN19CBossScene_SpaceGod10KeyPressedEi	CBossScene_SpaceGod::KeyPressed()
0x7d771	38	_ZN19CBossScene_SpaceGod9AppResumeEv	CBossScene_SpaceGod::AppResume()
0x7d799	516	_ZN19CBossScene_SpaceGod4InitEv	CBossScene_SpaceGod::Init()
0x7d99d	52	_ZN19CBossScene_SpaceGodD1Ev	CBossScene_SpaceGod()
0x7d9d1	18	_ZN19CBossScene_SpaceGodD0Ev	CBossScene_SpaceGod()
0x7d9e5	52	_ZN19CBossScene_SpaceGodD2Ev	CBossScene_SpaceGod()
0x7da19	88	_ZN19CBossScene_SpaceGodC1Eh	CBossScene_SpaceGod()
0x7da71	88	_ZN19CBossScene_SpaceGodC2Eh	CBossScene_SpaceGod()
0x7dac9	276	_ZN13CNom_SpaceGodD2Ev	CNom_SpaceGod()
0x7dbdd	48	_ZN7CVectorIP16CObject_SpaceGodED0Ev	CVector()
0x7dc0d	216	_ZN14CBoss_SpaceGodD1Ev	CBoss_SpaceGod()
0x7dce5	18	_ZN14CBoss_SpaceGodD0Ev	CBoss_SpaceGod()
0x7dcf9	216	_ZN14CBoss_SpaceGodD2Ev	CBoss_SpaceGod()
0x7ddd1	276	_ZN13CNom_SpaceGodD1Ev	CNom_SpaceGod()
0x7dee5	18	_ZN13CNom_SpaceGodD0Ev	CNom_SpaceGod()
0x7def9	48	_ZN7CVectorIP11CEnergyWaveED0Ev	CVector()
0x7df29	112	_ZN14CBoss_SpaceGod26InitFSM_BOSS_SPACEGOD_INITEv	CBoss_SpaceGod::InitFSM_BOSS_SPACEGOD_INIT()
0x7df99	144	_ZN14CBoss_SpaceGod12InitFsmLogicEv	CBoss_SpaceGod::InitFsmLogic()
0x7e029	300	_ZN19CBossScene_SpaceGod7DoLogicEv	CBossScene_SpaceGod::DoLogic()
0x7e155	90	_ZN14CBoss_SpaceGod27DoFSM_BOSS_SPACEGOD_MOVEDESEv	CBoss_SpaceGod::DoFSM_BOSS_SPACEGOD_MOVEDES()
0x7e1b1	224	_ZN14CBoss_SpaceGod10DoFSMLogicEv	CBoss_SpaceGod::DoFSMLogic()
0x7e291	40	_ZN7CBossUiD2Ev	CBossUi()
0x7e2b9	40	_ZN7CBossUiD1Ev	CBossUi()
0x7e2e1	80	_ZN7CBossUi9AddEnergyEs	CBossUi::AddEnergy()
0x7e331	10	_ZN7CBossUi9SetEnergyEs	CBossUi::SetEnergy()
0x7e33d	48	_ZN7CBossUi11SetQuadrantEi	CBossUi::SetQuadrant()
0x7e36d	348	_ZN7CBossUi4DrawEv	CBossUi::Draw()
0x7e4c9	38	_ZN7CBossUi4InitEisi	CBossUi::Init()
0x7e4f1	200	_ZN7CBossUi7DoLogicEv	CBossUi::DoLogic()
0x7e5b9	112	_ZN7CBossUiC1Ev	CBossUi()
0x7e629	112	_ZN7CBossUiC2Ev	CBossUi()
0x7e699	4	_ZN10CPopUpBase11KeyReleasedEi	CPopUpBase::KeyReleased()
0x7e69d	4	_ZN10CPopUpBase8IsClosedEv	CPopUpBase::IsClosed()
0x7e6a1	6	_ZN10CPopUpBase14EvPointerPressE12GxPointerPos	CPopUpBase::EvPointerPress()
0x7e6a9	6	_ZN10CPopUpBase13EvPointerMoveE12GxPointerPos	CPopUpBase::EvPointerMove()
0x7e6b1	6	_ZN10CPopUpBase16EvPointerReleaseE12GxPointerPos	CPopUpBase::EvPointerRelease()
0x7e6b9	4	_ZN10CPopUpBase16setChargeSuccessEb	CPopUpBase::setChargeSuccess()
0x7e6bd	4	_ZN10CPopUpBase15IsChargeSuccessEv	CPopUpBase::IsChargeSuccess()
0x7e6c1	2	_ZN10CPopUpBase15OnChargeSuccessEi	CPopUpBase::OnChargeSuccess()
0x7e6c5	2	_ZN10CPopUpBase12OnChargeFailEi	CPopUpBase::OnChargeFail()
0x7e6c9	4	_ZN16CConnectingPopup10KeyProcessEi	CConnectingPopup::KeyProcess()
0x7e6cd	2	_ZN16CConnectingPopup10AppSuspendEv	CConnectingPopup::AppSuspend()
0x7e6d1	28	_ZN16CConnectingPopup9AppResumeEv	CConnectingPopup::AppResume()
0x7e6ed	448	_ZN16CConnectingPopup4DrawEv	CConnectingPopup::Draw()
0x7e8ad	96	_ZN16CConnectingPopup8BackDrawEv	CConnectingPopup::BackDraw()
0x7e90d	108	_ZN16CConnectingPopup6UpDateEv	CConnectingPopup::UpDate()
0x7e979	148	_ZN16CConnectingPopupD1Ev	CConnectingPopup()
0x7ea0d	18	_ZN16CConnectingPopupD0Ev	CConnectingPopup()
0x7ea21	148	_ZN16CConnectingPopupD2Ev	CConnectingPopup()
0x7eab5	176	_ZN16CConnectingPopupC1EP10CPopUpBase	CConnectingPopup()
0x7eb65	176	_ZN16CConnectingPopupC2EP10CPopUpBase	CConnectingPopup()
0x7ec15	4	_ZN14CGxBFontParser14DoParseForCalcEi	CGxBFontParser::DoParseForCalc()
0x7ec19	4	_ZN14CGxBFontParser14DoParseForDrawEiP8CGxBFont	CGxBFontParser::DoParseForDraw()
0x7ec1d	44	_ZN8CDrawMgr7FadeOutEiiiii	CDrawMgr::FadeOut()
0x7ec49	48	_ZN8CDrawMgr8RGBBlendEiiiiii	CDrawMgr::RGBBlend()
0x7ec78	20	_ZThn4_N8CDrawMgr14DoParseForCalcEi	_ZThn4_N8CDrawMgr14DoParseForCalcEi
0x7ec8d	58	_ZN8CDrawMgr14DoParseForCalcEi	CDrawMgr::DoParseForCalc()
0x7ecc9	36	_ZN12CGsSingletonI8CDrawMgrED1Ev	CGsSingleton()
0x7eced	936	_ZN8CDrawMgr18DrawRotateFillRectEiiiiiijil	CDrawMgr::DrawRotateFillRect()
0x7f095	64	_ZN8CDrawMgr16CopyScreenBufferEv	CDrawMgr::CopyScreenBuffer()
0x7f0d5	696	_ZN8CDrawMgr29DrawColorBlurringScreenBufferEiiii	CDrawMgr::DrawColorBlurringScreenBuffer()
0x7f38d	1168	_ZN8CDrawMgr24DrawBlurringScreenBufferEi	CDrawMgr::DrawBlurringScreenBuffer()
0x7f81d	352	_ZN8CDrawMgr16Draw3DCopyScreenEv	CDrawMgr::Draw3DCopyScreen()
0x7f97d	388	_ZN8CDrawMgr15DrawScreenAxaisEib	CDrawMgr::DrawScreenAxais()
0x7fb01	62	_ZN8CDrawMgr12DrawAniFrameEP9CGxPZxAniiii	CDrawMgr::DrawAniFrame()
0x7fb41	584	_ZN8CDrawMgr16DrawScreenBufferEii	CDrawMgr::DrawScreenBuffer()
0x7fd89	122	_ZN8CDrawMgr13PaletteScrollEP11CGxPZxFrameii	CDrawMgr::PaletteScroll()
0x7fe05	1508	_ZN8CDrawMgr24DrawEnlargeScreenBuufferEiilji	CDrawMgr::DrawEnlargeScreenBuuffer()
0x80000	0	_stack	_stack
0x803e9	64	_ZN8CDrawMgr14DrawCopyScreenE10enumDrawOPi	CDrawMgr::DrawCopyScreen()
0x80429	104	_ZN8CDrawMgr18DeleteRotateBufferEv	CDrawMgr::DeleteRotateBuffer()
0x80491	198	_ZN8CDrawMgr18CreateRotateBufferEv	CDrawMgr::CreateRotateBuffer()
0x80559	144	_ZN8CDrawMgr10Set3DDepthEii	CDrawMgr::Set3DDepth()
0x805e9	70	_ZN8CDrawMgr14ClipRectNativeEiiii	CDrawMgr::ClipRectNative()
0x80631	40	_ZN8CDrawMgr19ResetClipRectNativeEv	CDrawMgr::ResetClipRectNative()
0x80659	20	_ZN8CDrawMgr10ClipRectExEiiii	CDrawMgr::ClipRectEx()
0x8066d	84	_ZN8CDrawMgr18CopyScreen3DBufferEv	CDrawMgr::CopyScreen3DBuffer()
0x806c1	48	_ZN8CDrawMgr21DeleteOffScreenBufferEv	CDrawMgr::DeleteOffScreenBuffer()
0x806f1	228	_ZN8CDrawMgrD1Ev	CDrawMgr()
0x807d5	228	_ZN8CDrawMgrD2Ev	CDrawMgr()
0x808b9	56	_ZN8CDrawMgr21CreateOffScreenBufferEv	CDrawMgr::CreateOffScreenBuffer()
0x808f0	20	_ZThn4_N8CDrawMgr14DoParseForDrawEiP8CGxBFont	_ZThn4_N8CDrawMgr14DoParseForDrawEiP8CGxBFont
0x80905	170	_ZN8CDrawMgr14DoParseForDrawEiP8CGxBFont	CDrawMgr::DoParseForDraw()
0x809b1	466	_ZN8CDrawMgr13DrawImgNumberEP9CGxPZxAniiiyii10enumDrawOPil	CDrawMgr::DrawImgNumber()
0x80b85	56	_ZN8CDrawMgr20GetStringWidthHeightEPcPiS1_i	CDrawMgr::GetStringWidthHeight()
0x80bbd	58	_ZN8CDrawMgr15GetStringHeightEPci	CDrawMgr::GetStringHeight()
0x80bf9	56	_ZN8CDrawMgr14GetStringWidthEPci	CDrawMgr::GetStringWidth()
0x80c31	402	_ZN8CDrawMgr13DrawMulStringEPciiiij	CDrawMgr::DrawMulString()
0x80dc5	24	_ZN8CDrawMgr10DrawStringEPciiij	CDrawMgr::DrawString()
0x80ddd	10	_ZN8CDrawMgr13GetFontHeightEv	CDrawMgr::GetFontHeight()
0x80de9	24	_ZN8CDrawMgr15GetFontClipRectEv	CDrawMgr::GetFontClipRect()
0x80e01	12	_ZN8CDrawMgr13ReSetFontClipEv	CDrawMgr::ReSetFontClip()
0x80e0d	28	_ZN8CDrawMgr11SetFontClipEiiii	CDrawMgr::SetFontClip()
0x80e29	34	_ZN8CDrawMgr11CreateBFontEPKcS1_S1_	CDrawMgr::CreateBFont()
0x80e4d	18	_ZN8CDrawMgrD0Ev	CDrawMgr()
0x80e61	44	_ZN12CGsSingletonI8CDrawMgrED0Ev	CGsSingleton()
0x80e8d	352	_ZN8CDrawMgrC1Ev	CDrawMgr()
0x80fed	352	_ZN8CDrawMgrC2Ev	CDrawMgr()
0x8114d	40	_ZN8CDrawMgr15ResetClipRectExEv	CDrawMgr::ResetClipRectEx()
0x81175	2	_ZN10CPopUpBase10AppSuspendEv	CPopUpBase::AppSuspend()
0x81179	2	_ZN10CPopUpBase9AppResumeEv	CPopUpBase::AppResume()
0x8117d	102	_ZN9CDSPPopup6DeleteEv	CDSPPopup::Delete()
0x811e5	148	_ZN9CDSPPopup17ConvertTouchPointERlS0_	CDSPPopup::ConvertTouchPoint()
0x81279	536	_ZN9CDSPPopup14EvPointerPressE12GxPointerPos	CDSPPopup::EvPointerPress()
0x81491	96	_ZN9CDSPPopup8BackDrawEv	CDSPPopup::BackDraw()
0x814f1	832	_ZN9CDSPPopup4DrawEv	CDSPPopup::Draw()
0x81831	520	_ZN9CDSPPopup6UpDateEv	CDSPPopup::UpDate()
0x81a39	332	_ZN9CDSPPopup10KeyProcessEi	CDSPPopup::KeyProcess()
0x81b85	456	_ZN9CDSPPopup4InitEv	CDSPPopup::Init()
0x81d4d	40	_ZN9CDSPPopupD1Ev	CDSPPopup()
0x81d75	18	_ZN9CDSPPopupD0Ev	CDSPPopup()
0x81d89	40	_ZN9CDSPPopupD2Ev	CDSPPopup()
0x81db1	52	_ZN9CDSPPopupC1EP10CPopUpBaseh	CDSPPopup()
0x81de5	52	_ZN9CDSPPopupC2EP10CPopUpBaseh	CDSPPopup()
0x81e19	24	_ZN7CEffectD2Ev	CEffect()
0x81e31	24	_ZN7CEffectD1Ev	CEffect()
0x81e49	30	_ZN7CEffect4DrawEv	CEffect::Draw()
0x81e69	36	_ZN12CGsSingletonI14CGsParticleMgrED1Ev	CGsSingleton()
0x81e8d	36	_ZN12CGsSingletonI10CEffectMgrED1Ev	CGsSingleton()
0x81eb1	92	_ZN7CVectorIP7CEffectE10AddElementES1_	CVector()
0x81f0d	92	_ZN7CVectorIP10CGsEmitterE10AddElementES1_	CVector()
0x81f69	44	_ZN8CGsArrayIP10CGsEmitterED1Ev	CGsArray()
0x81f95	44	_ZN7CVectorIP10CGsEmitterED1Ev	CVector()
0x81fc1	44	_ZN7CVectorIP7CEffectED1Ev	CVector()
0x81fed	42	_ZN10CEffectMgr4DrawEv	CEffectMgr::Draw()
0x82019	44	_ZN12CGsSingletonI10CEffectMgrED0Ev	CGsSingleton()
0x82045	18	_ZN8CGsArrayIP10CGsEmitterED0Ev	CGsArray()
0x82059	44	_ZN12CGsSingletonI14CGsParticleMgrED0Ev	CGsSingleton()
0x82085	44	_ZN10CEffectMgr9CreateEmtEiPc	CEffectMgr::CreateEmt()
0x820b1	124	_ZN10CEffectMgr4InitEv	CEffectMgr::Init()
0x8212d	324	_ZN10CEffectMgr7releaseEv	CEffectMgr::release()
0x82271	56	_ZN10CEffectMgrD1Ev	CEffectMgr()
0x822a9	18	_ZN10CEffectMgrD0Ev	CEffectMgr()
0x822bd	56	_ZN10CEffectMgrD2Ev	CEffectMgr()
0x822f5	64	_ZN14CGsParticleMgrD1Ev	CGsParticleMgr()
0x82335	120	_ZN14CGsParticleMgrC1Ev	CGsParticleMgr()
0x823ad	392	_ZN10CEffectMgrC1Eh	CEffectMgr()
0x82535	392	_ZN10CEffectMgrC2Eh	CEffectMgr()
0x826bd	32	_ZN7CEffect7DoLogicEv	CEffect::DoLogic()
0x826dd	150	_ZN10CEffectMgr7DoLogicEv	CEffectMgr::DoLogic()
0x82775	60	_ZN7CEffectC1EP7CPzxMgriii10enumDrawOP	CEffect()
0x827b1	536	_ZN10CEffectMgr12CreateEffectEhiibb	CEffectMgr::CreateEffect()
0x829c9	60	_ZN7CEffectC2EP7CPzxMgriii10enumDrawOP	CEffect()
0x82a05	48	_ZN7CVectorIP10CGsEmitterED0Ev	CVector()
0x82a35	48	_ZN7CVectorIP7CEffectED0Ev	CVector()
0x82a65	72	_ZN14CGsParticleMgrD0Ev	CGsParticleMgr()
0x82aad	6	_ZN7CObject15SetLandLayerNumEh	CObject::SetLandLayerNum()
0x82ab5	4	_ZN10CEventRect7DoLogicEv	CEventRect::DoLogic()
0x82ab9	2	_ZN10CEventRect4DrawEii10enumDrawOPil	CEventRect::Draw()
0x82abd	6	_ZN10CEventRect8GetRangeEv	CEventRect::GetRange()
0x82ac5	60	_ZN10CEventRect8IsInRectEP7CObject	CEventRect::IsInRect()
0x82b01	148	_ZN10CEventRect8IsInRectEv	CEventRect::IsInRect()
0x82b95	52	_ZN10CEventRectD1Ev	CEventRect()
0x82bc9	18	_ZN10CEventRectD0Ev	CEventRect()
0x82bdd	52	_ZN10CEventRectD2Ev	CEventRect()
0x82c11	76	_ZN10CEventRectC1EiP4CMap	CEventRect()
0x82c5d	76	_ZN10CEventRectC2EiP4CMap	CEventRect()
0x82ca9	36	_ZN8CMonster22PushFSM_MONSTER_ACTIVEEv	CMonster::PushFSM_MONSTER_ACTIVE()
0x82ccd	214	_ZN12CEventRect_J8IsInRectEv	CEventRect_J::IsInRect()
0x82da5	168	_ZN7CVectorIP7CObjectE13InsertElementES1_i	CVector()
0x82e4d	32	_ZN12CEventRect_JD1Ev	CEventRect_J()
0x82e6d	18	_ZN12CEventRect_JD0Ev	CEventRect_J()
0x82e81	32	_ZN12CEventRect_JD2Ev	CEventRect_J()
0x82ea1	48	_ZN12CEventRect_JC1EiP4CMap	CEventRect_J()
0x82ed1	48	_ZN12CEventRect_JC2EiP4CMap	CEventRect_J()
0x82f01	2198	_ZN12CEventRect_J7DoLogicEv	CEventRect_J::DoLogic()
0x83799	760	_ZN12CEventRect_T11CheckInRectEP7CObject	CEventRect_T::CheckInRect()
0x83a91	120	_ZN12CEventRect_T8IsInRectEv	CEventRect_T::IsInRect()
0x83b09	116	_ZN12CEventRect_T4DrawEii10enumDrawOPil	CEventRect_T::Draw()
0x83b7d	92	_ZN7CVectorIP7CObjectE10AddElementES1_	CVector()
0x83bd9	3118	_ZN12CEventRect_T7DoLogicEv	CEventRect_T::DoLogic()
0x84809	32	_ZN12CEventRect_TD1Ev	CEventRect_T()
0x84829	18	_ZN12CEventRect_TD0Ev	CEventRect_T()
0x8483d	32	_ZN12CEventRect_TD2Ev	CEventRect_T()
0x8485d	132	_ZN12CEventRect_TC1EiP4CMap	CEventRect_T()
0x848e1	132	_ZN12CEventRect_TC2EiP4CMap	CEventRect_T()
0x84965	6	_ZN13CNGlobalPopUp7SetTypeEh	CNGlobalPopUp::SetType()
0x8496d	2	_ZN13CNGlobalPopUp8PressYesEv	CNGlobalPopUp::PressYes()
0x84971	2	_ZN13CNGlobalPopUp7PressNoEv	CNGlobalPopUp::PressNo()
0x84975	2	_ZN13CNGlobalPopUp7PressOKEv	CNGlobalPopUp::PressOK()
0x84979	2	_ZN13CGsRecvTarget10OnNetErrorEii	CGsRecvTarget::OnNetError()
0x8497c	20	_ZThn24_N16CFigureGiftPopup9OnNetSendEv	_ZThn24_N16CFigureGiftPopup9OnNetSendEv
0x84991	2	_ZN16CFigureGiftPopup9OnNetSendEv	CFigureGiftPopup::OnNetSend()
0x84995	344	_ZN16CFigureGiftPopup6DeleteEv	CFigureGiftPopup::Delete()
0x84aed	26	_ZN16CFigureGiftPopup16KeyProcessCommonEi	CFigureGiftPopup::KeyProcessCommon()
0x84b09	70	_ZN16CFigureGiftPopup14GetFigureLevelEi	CFigureGiftPopup::GetFigureLevel()
0x84b51	156	_ZN16CFigureGiftPopup17ConvertTouchPointERlS0_	CFigureGiftPopup::ConvertTouchPoint()
0x84bed	38	_ZN16CFigureGiftPopup20GetCenterBoundingBoxER7TGXRECTP11CGxPZxFrame	CFigureGiftPopup::GetCenterBoundingBox()
0x84c15	32	_ZN19CFigureSendSubPopupD1Ev	CFigureSendSubPopup()
0x84c35	148	_ZN16CFigureGiftPopup23ConvertTouchPointOemIMEERlS0_	CFigureGiftPopup::ConvertTouchPointOemIME()
0x84cc9	80	_ZN16CFigureGiftPopup10DrawOemIMEEv	CFigureGiftPopup::DrawOemIME()
0x84d19	12	_ZN16CFigureGiftPopup22GetFigureSetInfoStringEi	CFigureGiftPopup::GetFigureSetInfoString()
0x84d25	12	_ZN16CFigureGiftPopup18GetFigureBuyStringEi	CFigureGiftPopup::GetFigureBuyString()
0x84d31	12	_ZN16CFigureGiftPopup19GetFigureNameStringEi	CFigureGiftPopup::GetFigureNameString()
0x84d3d	284	_ZN16CFigureGiftPopup7ConnectEv	CFigureGiftPopup::Connect()
0x84e58	20	_ZThn24_N16CFigureGiftPopup10OnNetErrorEii	_ZThn24_N16CFigureGiftPopup10OnNetErrorEii
0x84e6d	80	_ZN16CFigureGiftPopup10OnNetErrorEii	CFigureGiftPopup::OnNetError()
0x84ebd	40	_ZN19CFigureSendSubPopup11DeletePopUpEv	CFigureSendSubPopup::DeletePopUp()
0x84ee5	28	_ZN16CFigureGiftPopup9SetLegacyEv	CFigureGiftPopup::SetLegacy()
0x84f01	336	_ZN16CFigureGiftPopup12GetSetStringEi	CFigureGiftPopup::GetSetString()
0x85051	344	_ZN16CFigureGiftPopup19GetFigureGiftStringEi	CFigureGiftPopup::GetFigureGiftString()
0x851a9	220	_ZN16CFigureGiftPopup19GetFigureInfoStringEi	CFigureGiftPopup::GetFigureInfoString()
0x85285	188	_ZN16CFigureGiftPopup9SetSelectEv	CFigureGiftPopup::SetSelect()
0x85340	20	_ZThn24_N16CFigureGiftPopup12OnNetReceiveEi	_ZThn24_N16CFigureGiftPopup12OnNetReceiveEi
0x85355	90	_ZN16CFigureGiftPopup12OnNetReceiveEi	CFigureGiftPopup::OnNetReceive()
0x853b1	208	_ZN16CFigureGiftPopup24EvPointerPressSelectModeE12GxPointerPos	CFigureGiftPopup::EvPointerPressSelectMode()
0x85481	600	_ZN16CFigureGiftPopup20KeyProcessSelectModeEi	CFigureGiftPopup::KeyProcessSelectMode()
0x856d9	1924	_ZN16CFigureGiftPopup14DrawSelectModeEv	CFigureGiftPopup::DrawSelectMode()
0x85e5d	10	_ZN16CFigureGiftPopup19UpdateGiftInputModeEv	CFigureGiftPopup::UpdateGiftInputMode()
0x85e69	180	_ZN16CFigureGiftPopup16UpdateSelectModeEv	CFigureGiftPopup::UpdateSelectMode()
0x85f1d	148	_ZN16CFigureGiftPopup27EvPointerPressGiftInputModeE12GxPointerPos	CFigureGiftPopup::EvPointerPressGiftInputMode()
0x85fb1	1064	_ZN16CFigureGiftPopup17DrawGiftInputModeEv	CFigureGiftPopup::DrawGiftInputMode()
0x863d9	288	_ZN16CFigureGiftPopup20EvPointerPressCommonE12GxPointerPos	CFigureGiftPopup::EvPointerPressCommon()
0x864f9	76	_ZN16CFigureGiftPopup14EvPointerPressE12GxPointerPos	CFigureGiftPopup::EvPointerPress()
0x86545	108	_ZN16CFigureGiftPopup10DrawCommonEv	CFigureGiftPopup::DrawCommon()
0x865b1	66	_ZN16CFigureGiftPopup4DrawEv	CFigureGiftPopup::Draw()
0x865f5	100	_ZN16CFigureGiftPopup8BackDrawEv	CFigureGiftPopup::BackDraw()
0x86659	400	_ZN16CFigureGiftPopup12UpdateCommonEv	CFigureGiftPopup::UpdateCommon()
0x867e9	36	_ZN16CFigureGiftPopup6UpDateEv	CFigureGiftPopup::UpDate()
0x8680d	1284	_ZN16CFigureGiftPopup4InitEv	CFigureGiftPopup::Init()
0x86d11	84	_ZN16CFigureGiftPopupD1Ev	CFigureGiftPopup()
0x86d65	18	_ZN16CFigureGiftPopupD0Ev	CFigureGiftPopup()
0x86d79	84	_ZN16CFigureGiftPopupD2Ev	CFigureGiftPopup()
0x86dcd	132	_ZN16CFigureGiftPopupC1EP10CPopUpBaseh	CFigureGiftPopup()
0x86e51	132	_ZN16CFigureGiftPopupC2EP10CPopUpBaseh	CFigureGiftPopup()
0x86ed5	48	_ZN19CFigureSendSubPopupC1EP10CPopUpBasePcS2_	CFigureSendSubPopup()
0x86f05	596	_ZN16CFigureGiftPopup23KeyProcessGiftInputModeEi	CFigureGiftPopup::KeyProcessGiftInputMode()
0x87159	50	_ZN16CFigureGiftPopup10KeyProcessEi	CFigureGiftPopup::KeyProcess()
0x8718d	48	_ZN19CFigureSendSubPopupC2EP10CPopUpBasePcS2_	CFigureSendSubPopup()
0x871bd	40	_ZN19CFigureSendSubPopupD0Ev	CFigureSendSubPopup()
0x871e5	284	_ZN18CFigureSelectPopup6DeleteEv	CFigureSelectPopup::Delete()
0x87301	26	_ZN18CFigureSelectPopup16KeyProcessCommonEi	CFigureSelectPopup::KeyProcessCommon()
0x8731d	70	_ZN18CFigureSelectPopup14GetFigureLevelEi	CFigureSelectPopup::GetFigureLevel()
0x87365	156	_ZN18CFigureSelectPopup17ConvertTouchPointERlS0_	CFigureSelectPopup::ConvertTouchPoint()
0x87401	32	_ZN21CFigureSelectSubPopupD1Ev	CFigureSelectSubPopup()
0x87421	10	_ZN18CFigureSelectPopup22GetFigureSetInfoStringEi	CFigureSelectPopup::GetFigureSetInfoString()
0x8742d	12	_ZN18CFigureSelectPopup18GetFigureBuyStringEi	CFigureSelectPopup::GetFigureBuyString()
0x87439	10	_ZN18CFigureSelectPopup19GetFigureNameStringEi	CFigureSelectPopup::GetFigureNameString()
0x87445	56	_ZN18CFigureSelectPopup9SetLegacyEv	CFigureSelectPopup::SetLegacy()
0x8747d	324	_ZN18CFigureSelectPopup12GetSetStringEi	CFigureSelectPopup::GetSetString()
0x875c1	220	_ZN18CFigureSelectPopup19GetFigureInfoStringEi	CFigureSelectPopup::GetFigureInfoString()
0x8769d	236	_ZN18CFigureSelectPopup9SetSelectEv	CFigureSelectPopup::SetSelect()
0x87789	204	_ZN18CFigureSelectPopup24EvPointerPressSelectModeE12GxPointerPos	CFigureSelectPopup::EvPointerPressSelectMode()
0x87855	122	_ZN18CFigureSelectPopup21EvPointerPressTapModeE12GxPointerPos	CFigureSelectPopup::EvPointerPressTapMode()
0x878d1	1908	_ZN18CFigureSelectPopup14DrawSelectModeEv	CFigureSelectPopup::DrawSelectMode()
0x88045	180	_ZN18CFigureSelectPopup16UpdateSelectModeEv	CFigureSelectPopup::UpdateSelectMode()
0x880f9	276	_ZN18CFigureSelectPopup13UpdateTapModeEv	CFigureSelectPopup::UpdateTapMode()
0x8820d	204	_ZN18CFigureSelectPopup17KeyProcessTapModeEi	CFigureSelectPopup::KeyProcessTapMode()
0x882d9	1312	_ZN18CFigureSelectPopup11DrawTapModeEv	CFigureSelectPopup::DrawTapMode()
0x887f9	136	_ZN18CFigureSelectPopup20EvPointerPressCommonE12GxPointerPos	CFigureSelectPopup::EvPointerPressCommon()
0x88881	76	_ZN18CFigureSelectPopup14EvPointerPressE12GxPointerPos	CFigureSelectPopup::EvPointerPress()
0x888cd	96	_ZN18CFigureSelectPopup8BackDrawEv	CFigureSelectPopup::BackDraw()
0x8892d	132	_ZN18CFigureSelectPopup10DrawCommonEv	CFigureSelectPopup::DrawCommon()
0x889b1	36	_ZN18CFigureSelectPopup4DrawEv	CFigureSelectPopup::Draw()
0x889d5	400	_ZN18CFigureSelectPopup12UpdateCommonEv	CFigureSelectPopup::UpdateCommon()
0x88b65	36	_ZN18CFigureSelectPopup6UpDateEv	CFigureSelectPopup::UpDate()
0x88b89	1016	_ZN18CFigureSelectPopup4InitEv	CFigureSelectPopup::Init()
0x88f81	56	_ZN18CFigureSelectPopupD1Ev	CFigureSelectPopup()
0x88fb9	18	_ZN18CFigureSelectPopupD0Ev	CFigureSelectPopup()
0x88fcd	56	_ZN18CFigureSelectPopupD2Ev	CFigureSelectPopup()
0x89005	92	_ZN18CFigureSelectPopupC1EP10CPopUpBaseh	CFigureSelectPopup()
0x89061	92	_ZN18CFigureSelectPopupC2EP10CPopUpBaseh	CFigureSelectPopup()
0x890bd	104	_ZN21CFigureSelectSubPopupC1EP10CPopUpBasePcS2_bhss	CFigureSelectSubPopup()
0x89125	1128	_ZN18CFigureSelectPopup20KeyProcessSelectModeEi	CFigureSelectPopup::KeyProcessSelectMode()
0x8958d	50	_ZN18CFigureSelectPopup10KeyProcessEi	CFigureSelectPopup::KeyProcess()
0x895c1	292	_ZN21CFigureSelectSubPopup11DeletePopUpEv	CFigureSelectSubPopup::DeletePopUp()
0x896e5	104	_ZN21CFigureSelectSubPopupC2EP10CPopUpBasePcS2_bhss	CFigureSelectSubPopup()
0x8974d	40	_ZN21CFigureSelectSubPopupD0Ev	CFigureSelectSubPopup()
0x89775	4	_ZN11CFiverPopup10KeyProcessEi	CFiverPopup::KeyProcess()
0x89779	2	_ZN11CFiverPopup8BackDrawEv	CFiverPopup::BackDraw()
0x8977d	424	_ZN11CFiverPopup4DrawEv	CFiverPopup::Draw()
0x89925	48	_ZN11CFiverPopup6UpDateEv	CFiverPopup::UpDate()
0x89955	32	_ZN11CFiverPopupD1Ev	CFiverPopup()
0x89975	18	_ZN11CFiverPopupD0Ev	CFiverPopup()
0x89989	32	_ZN11CFiverPopupD2Ev	CFiverPopup()
0x899a9	80	_ZN11CFiverPopupC1EP4CNomP10CPopUpBase	CFiverPopup()
0x899f9	80	_ZN11CFiverPopupC2EP4CNomP10CPopUpBase	CFiverPopup()
0x89a49	118	_ZN16CFoodSelectPopup6DeleteEv	CFoodSelectPopup::Delete()
0x89ac1	14	_ZN16CFoodSelectPopup3EatEv	CFoodSelectPopup::Eat()
0x89ad1	152	_ZN16CFoodSelectPopup17ConvertTouchPointERlS0_	CFoodSelectPopup::ConvertTouchPoint()
0x89b69	32	_ZN13CFoodSubPopupD1Ev	CFoodSubPopup()
0x89b89	12	_ZN16CFoodSelectPopup13GetFoodParam1Ei	CFoodSelectPopup::GetFoodParam1()
0x89b95	12	_ZN16CFoodSelectPopup13GetFoodParam0Ei	CFoodSelectPopup::GetFoodParam0()
0x89ba1	12	_ZN16CFoodSelectPopup19GetFoodConditonKindEi	CFoodSelectPopup::GetFoodConditonKind()
0x89bad	12	_ZN16CFoodSelectPopup14GetFoodBuyCoinEi	CFoodSelectPopup::GetFoodBuyCoin()
0x89bb9	10	_ZN16CFoodSelectPopup11GetFoodNameEi	CFoodSelectPopup::GetFoodName()
0x89bc5	236	_ZN16CFoodSelectPopup11GetFoodInfoEi	CFoodSelectPopup::GetFoodInfo()
0x89cb1	64	_ZN16CFoodSelectPopup9SetSelectEv	CFoodSelectPopup::SetSelect()
0x89cf1	240	_ZN16CFoodSelectPopup14EvPointerPressE12GxPointerPos	CFoodSelectPopup::EvPointerPress()
0x89de1	92	_ZN16CFoodSelectPopup8BackDrawEv	CFoodSelectPopup::BackDraw()
0x89e3d	1212	_ZN16CFoodSelectPopup4DrawEv	CFoodSelectPopup::Draw()
0x8a2f9	560	_ZN16CFoodSelectPopup6UpDateEv	CFoodSelectPopup::UpDate()
0x8a529	648	_ZN16CFoodSelectPopup4InitEv	CFoodSelectPopup::Init()
0x8a7b1	64	_ZN16CFoodSelectPopupD1Ev	CFoodSelectPopup()
0x8a7f1	18	_ZN16CFoodSelectPopupD0Ev	CFoodSelectPopup()
0x8a805	64	_ZN16CFoodSelectPopupD2Ev	CFoodSelectPopup()
0x8a845	116	_ZN16CFoodSelectPopupC1EP10CPopUpBaseP7CPzxMgrh	CFoodSelectPopup()
0x8a8b9	116	_ZN16CFoodSelectPopupC2EP10CPopUpBaseP7CPzxMgrh	CFoodSelectPopup()
0x8a92d	100	_ZN13CFoodSubPopupC1EP10CPopUpBasePcS2_bhss	CFoodSubPopup()
0x8a991	596	_ZN16CFoodSelectPopup10KeyProcessEi	CFoodSelectPopup::KeyProcess()
0x8abe5	348	_ZN13CFoodSubPopup11DeletePopUpEv	CFoodSubPopup::DeletePopUp()
0x8ad41	100	_ZN13CFoodSubPopupC2EP10CPopUpBasePcS2_bhss	CFoodSubPopup()
0x8ada5	40	_ZN13CFoodSubPopupD0Ev	CFoodSubPopup()
0x8adcd	14	_ZN11CFsmManager6TopFSMEv	CFsmManager::TopFSM()
0x8addd	14	_ZN11CFsmManager11CompleteFSMEv	CFsmManager::CompleteFSM()
0x8aded	26	_ZN11CFsmManager7NextFSMEv	CFsmManager::NextFSM()
0x8ae09	14	_ZN11CFsmManager6PopFSMEv	CFsmManager::PopFSM()
0x8ae19	12	_ZN11CFsmManager10IsEmptyFsmEv	CFsmManager::IsEmptyFsm()
0x8ae25	64	_ZN11CFsmManager9FSMHandleEv	CFsmManager::FSMHandle()
0x8ae65	56	_ZN11CFsmManager11DoFSMHandleEv	CFsmManager::DoFSMHandle()
0x8ae9d	18	_ZN11CFsmManager11NextSpotFSMEv	CFsmManager::NextSpotFSM()
0x8aeb1	48	_ZN11CFsmManager8ClearFSMEv	CFsmManager::ClearFSM()
0x8aee1	72	_ZN11CFsmManagerD1Ev	CFsmManager()
0x8af29	18	_ZN11CFsmManagerD0Ev	CFsmManager()
0x8af3d	72	_ZN11CFsmManagerD2Ev	CFsmManager()
0x8af85	96	_ZN11CFsmManager7InitFSMEv	CFsmManager::InitFSM()
0x8afe5	40	_ZN11CFsmManagerC1Ev	CFsmManager()
0x8b00d	40	_ZN11CFsmManagerC2Ev	CFsmManager()
0x8b035	80	_ZN5ArrayIP14tagFsmStackMsgE6ResizeEi	Array()
0x8b085	128	_ZN11CFsmManager7PushFSMEiPviiiiii	CFsmManager::PushFSM()
0x8b105	118	_ZN11CFsmManager7PushFSMEP14tagFsmStackMsg	CFsmManager::PushFSM()
0x8b17d	44	_ZN6AStackIP14tagFsmStackMsgED1Ev	AStack()
0x8b1a9	44	_ZN5ArrayIP14tagFsmStackMsgED1Ev	Array()
0x8b1d5	48	_ZN5ArrayIP14tagFsmStackMsgED0Ev	Array()
0x8b205	48	_ZN6AStackIP14tagFsmStackMsgED0Ev	AStack()
0x8b235	4	_ZN14CGameOverPopup10KeyProcessEi	CGameOverPopup::KeyProcess()
0x8b239	2	_ZN14CGameOverPopup8DrawInfoEv	CGameOverPopup::DrawInfo()
0x8b23d	2	_ZN14CGameOverPopup8ContinueEv	CGameOverPopup::Continue()
0x8b241	86	_ZN14CGameOverPopup6DeleteEv	CGameOverPopup::Delete()
0x8b299	32	_ZN17CGameOverSubPopupD1Ev	CGameOverSubPopup()
0x8b2b9	148	_ZN18CBossGameOverPopup8ContinueEv	CBossGameOverPopup::Continue()
0x8b34d	96	_ZN19CStageGameOverPopup8ContinueEv	CStageGameOverPopup::Continue()
0x8b3ad	100	_ZN14CGameOverPopup20GetCenterBoundingBoxEP11CGxPZxFramehi	CGameOverPopup::GetCenterBoundingBox()
0x8b411	216	_ZN18CBossGameOverPopup8DrawInfoEv	CBossGameOverPopup::DrawInfo()
0x8b4e9	236	_ZN19CStageGameOverPopup8DrawInfoEv	CStageGameOverPopup::DrawInfo()
0x8b5d5	432	_ZN14CGameOverPopup4DrawEv	CGameOverPopup::Draw()
0x8b785	92	_ZN14CGameOverPopup8BackDrawEv	CGameOverPopup::BackDraw()
0x8b7e1	124	_ZN14CGameOverPopup6UpDateEv	CGameOverPopup::UpDate()
0x8b85d	300	_ZN14CGameOverPopup14EvPointerPressE12GxPointerPos	CGameOverPopup::EvPointerPress()
0x8b989	284	_ZN14CGameOverPopup4InitEv	CGameOverPopup::Init()
0x8baa5	34	_ZN18CBossGameOverPopup4InitEv	CBossGameOverPopup::Init()
0x8bac9	34	_ZN19CStageGameOverPopup4InitEv	CStageGameOverPopup::Init()
0x8baed	40	_ZN14CGameOverPopupD1Ev	CGameOverPopup()
0x8bb15	18	_ZN14CGameOverPopupD0Ev	CGameOverPopup()
0x8bb29	40	_ZN14CGameOverPopupD2Ev	CGameOverPopup()
0x8bb51	32	_ZN19CStageGameOverPopupD1Ev	CStageGameOverPopup()
0x8bb71	32	_ZN18CBossGameOverPopupD1Ev	CBossGameOverPopup()
0x8bb91	244	_ZN14CGameOverPopupC1EP10CPopUpBase	CGameOverPopup()
0x8bc85	244	_ZN14CGameOverPopupC2EP10CPopUpBase	CGameOverPopup()
0x8bd79	52	_ZN18CBossGameOverPopupC1Ev	CBossGameOverPopup()
0x8bdad	52	_ZN18CBossGameOverPopupC2Ev	CBossGameOverPopup()
0x8bde1	48	_ZN19CStageGameOverPopupC1EP10CPopUpBase	CStageGameOverPopup()
0x8be11	48	_ZN19CStageGameOverPopupC2EP10CPopUpBase	CStageGameOverPopup()
0x8be41	56	_ZN17CGameOverSubPopupC1EP10CPopUpBasePcS2_hii	CGameOverSubPopup()
0x8be79	564	_ZN18CBossGameOverPopup10KeyProcessEi	CBossGameOverPopup::KeyProcess()
0x8c0ad	624	_ZN19CStageGameOverPopup10KeyProcessEi	CStageGameOverPopup::KeyProcess()
0x8c31d	424	_ZN17CGameOverSubPopup11DeletePopUpEv	CGameOverSubPopup::DeletePopUp()
0x8c4c5	56	_ZN17CGameOverSubPopupC2EP10CPopUpBasePcS2_hii	CGameOverSubPopup()
0x8c4fd	40	_ZN17CGameOverSubPopupD0Ev	CGameOverSubPopup()
0x8c525	40	_ZN18CBossGameOverPopupD0Ev	CBossGameOverPopup()
0x8c54d	40	_ZN19CStageGameOverPopupD0Ev	CStageGameOverPopup()
0x8c575	2	_ZN10CGamePopup12LoadResourceEv	CGamePopup::LoadResource()
0x8c579	54	_ZN10CGamePopup6DeleteEv	CGamePopup::Delete()
0x8c5b1	28	_ZN14CBossGamePopup11DeletePopUpEv	CBossGamePopup::DeletePopUp()
0x8c5cd	32	_ZN13CGameOutPopupD1Ev	CGameOutPopup()
0x8c5ed	96	_ZN10CGamePopup20GetCenterBoundingBoxEP11CGxPZxFramehi	CGamePopup::GetCenterBoundingBox()
0x8c64d	60	_ZN10CGamePopup8BackDrawEv	CGamePopup::BackDraw()
0x8c689	272	_ZN10CGamePopup4DrawEv	CGamePopup::Draw()
0x8c799	8	_ZN10CGamePopup10PopUpCloseEv	CGamePopup::PopUpClose()
0x8c7a1	78	_ZN10CGamePopup6UpDateEv	CGamePopup::UpDate()
0x8c7f1	248	_ZN10CGamePopup14EvPointerPressE12GxPointerPos	CGamePopup::EvPointerPress()
0x8c8e9	120	_ZN10CGamePopup4InitEv	CGamePopup::Init()
0x8c961	52	_ZN10CGamePopupD1Ev	CGamePopup()
0x8c995	18	_ZN10CGamePopupD0Ev	CGamePopup()
0x8c9a9	52	_ZN10CGamePopupD2Ev	CGamePopup()
0x8c9dd	32	_ZN14CBossGamePopupD1Ev	CBossGamePopup()
0x8c9fd	120	_ZN10CGamePopupC1Ev	CGamePopup()
0x8ca75	120	_ZN10CGamePopupC2Ev	CGamePopup()
0x8caed	56	_ZN14CBossGamePopupC1E19PROTOCOL_GAME_STATE	CBossGamePopup()
0x8cb25	56	_ZN14CBossGamePopupC2E19PROTOCOL_GAME_STATE	CBossGamePopup()
0x8cb5d	92	_ZN13CGameOutPopup11DeletePopUpEv	CGameOutPopup::DeletePopUp()
0x8cbb9	48	_ZN13CGameOutPopupC1EP10CPopUpBasePcS2_	CGameOutPopup()
0x8cbe9	336	_ZN10CGamePopup10KeyProcessEi	CGamePopup::KeyProcess()
0x8cd39	48	_ZN13CGameOutPopupC2EP10CPopUpBasePcS2_	CGameOutPopup()
0x8cd69	40	_ZN13CGameOutPopupD0Ev	CGameOutPopup()
0x8cd91	40	_ZN14CBossGamePopupD0Ev	CBossGamePopup()
0x8cdb9	2	_ZN10CGiftPopup12LoadResourceEv	CGiftPopup::LoadResource()
0x8cdbd	38	_ZN10CGiftPopup6DeleteEv	CGiftPopup::Delete()
0x8cde5	176	_ZN10CGiftPopup17ConvertTouchPointERlS0_	CGiftPopup::ConvertTouchPoint()
0x8ce95	38	_ZN10CGiftPopup20GetCenterBoundingBoxER7TGXRECTP11CGxPZxFrame	CGiftPopup::GetCenterBoundingBox()
0x8cebd	304	_ZN10CGiftPopup14EvPointerPressE12GxPointerPos	CGiftPopup::EvPointerPress()
0x8cfed	96	_ZN10CGiftPopup8BackDrawEv	CGiftPopup::BackDraw()
0x8d04d	824	_ZN10CGiftPopup4DrawEv	CGiftPopup::Draw()
0x8d385	196	_ZN10CGiftPopup10KeyProcessEi	CGiftPopup::KeyProcess()
0x8d449	316	_ZN10CGiftPopup6UpDateEv	CGiftPopup::UpDate()
0x8d585	348	_ZN10CGiftPopup4InitEv	CGiftPopup::Init()
0x8d6e1	40	_ZN10CGiftPopupD1Ev	CGiftPopup()
0x8d709	18	_ZN10CGiftPopupD0Ev	CGiftPopup()
0x8d71d	40	_ZN10CGiftPopupD2Ev	CGiftPopup()
0x8d745	96	_ZN10CGiftPopupC1EP10CPopUpBaseP7CPzxMgrhP15tagRecvGiftInfoh	CGiftPopup()
0x8d7a5	96	_ZN10CGiftPopupC2EP10CPopUpBaseP7CPzxMgrhP15tagRecvGiftInfoh	CGiftPopup()
0x8d805	2	_ZN14CGlassBuyPopup11DeletePopUpEv	CGlassBuyPopup::DeletePopUp()
0x8d808	20	_ZThn24_N14CGlassBuyPopup9OnNetSendEv	_ZThn24_N14CGlassBuyPopup9OnNetSendEv
0x8d81d	2	_ZN14CGlassBuyPopup9OnNetSendEv	CGlassBuyPopup::OnNetSend()
0x8d821	38	_ZN14CGlassBuyPopup6DeleteEv	CGlassBuyPopup::Delete()
0x8d849	48	_ZN14CGlassBuyPopup8BackDrawEv	CGlassBuyPopup::BackDraw()
0x8d879	38	_ZN14CGlassBuyPopup20GetCenterBoundingBoxER7TGXRECTP11CGxPZxFrame	CGlassBuyPopup::GetCenterBoundingBox()
0x8d8a1	144	_ZN14CGlassBuyPopup17ConvertTouchPointERlS0_	CGlassBuyPopup::ConvertTouchPoint()
0x8d931	32	_ZN17CGlassBuySubPopupD1Ev	CGlassBuySubPopup()
0x8d951	212	_ZN14CGlassBuyPopup7ConnectE15EnumNetLinkType	CGlassBuyPopup::Connect()
0x8da24	20	_ZThn24_N14CGlassBuyPopup10OnNetErrorEii	_ZThn24_N14CGlassBuyPopup10OnNetErrorEii
0x8da39	96	_ZN14CGlassBuyPopup10OnNetErrorEii	CGlassBuyPopup::OnNetError()
0x8da99	332	_ZN14CGlassBuyPopup6UpDateEv	CGlassBuyPopup::UpDate()
0x8dbe5	44	_ZN17CGlassBuySubPopup11DeletePopUpEv	CGlassBuySubPopup::DeletePopUp()
0x8dc10	20	_ZThn24_N14CGlassBuyPopup12OnNetReceiveEi	_ZThn24_N14CGlassBuyPopup12OnNetReceiveEi
0x8dc25	166	_ZN14CGlassBuyPopup12OnNetReceiveEi	CGlassBuyPopup::OnNetReceive()
0x8dccd	776	_ZN14CGlassBuyPopup4DrawEv	CGlassBuyPopup::Draw()
0x8dfd5	484	_ZN14CGlassBuyPopup14EvPointerPressE12GxPointerPos	CGlassBuyPopup::EvPointerPress()
0x8e1b9	416	_ZN14CGlassBuyPopup4InitEv	CGlassBuyPopup::Init()
0x8e359	44	_ZN14CGlassBuyPopupD1Ev	CGlassBuyPopup()
0x8e385	18	_ZN14CGlassBuyPopupD0Ev	CGlassBuyPopup()
0x8e399	44	_ZN14CGlassBuyPopupD2Ev	CGlassBuyPopup()
0x8e3c5	84	_ZN14CGlassBuyPopupC1EP10CPopUpBaseh	CGlassBuyPopup()
0x8e419	84	_ZN14CGlassBuyPopupC2EP10CPopUpBaseh	CGlassBuyPopup()
0x8e46d	48	_ZN17CGlassBuySubPopupC1EP10CPopUpBasePcS2_h	CGlassBuySubPopup()
0x8e49d	304	_ZN14CGlassBuyPopup10KeyProcessEi	CGlassBuyPopup::KeyProcess()
0x8e5cd	48	_ZN17CGlassBuySubPopupC2EP10CPopUpBasePcS2_h	CGlassBuySubPopup()
0x8e5fd	40	_ZN17CGlassBuySubPopupD0Ev	CGlassBuySubPopup()
0x8e625	86	_ZN10CHelpPopup6DeleteEv	CHelpPopup::Delete()
0x8e67d	26	_ZN10CHelpPopup16KeyProcessCommonEi	CHelpPopup::KeyProcessCommon()
0x8e699	144	_ZN10CHelpPopup17ConvertTouchPointERlS0_	CHelpPopup::ConvertTouchPoint()
0x8e729	132	_ZN10CHelpPopup22EvPointerPressHelpModeE12GxPointerPos	CHelpPopup::EvPointerPressHelpMode()
0x8e7ad	132	_ZN10CHelpPopup23EvPointerPressHowToModeE12GxPointerPos	CHelpPopup::EvPointerPressHowToMode()
0x8e831	132	_ZN10CHelpPopup23EvPointerPressIntroModeE12GxPointerPos	CHelpPopup::EvPointerPressIntroMode()
0x8e8b5	196	_ZN10CHelpPopup18KeyProcessHelpModeEi	CHelpPopup::KeyProcessHelpMode()
0x8e979	196	_ZN10CHelpPopup19KeyProcessHowToModeEi	CHelpPopup::KeyProcessHowToMode()
0x8ea3d	196	_ZN10CHelpPopup19KeyProcessIntroModeEi	CHelpPopup::KeyProcessIntroMode()
0x8eb01	64	_ZN10CHelpPopup10KeyProcessEi	CHelpPopup::KeyProcess()
0x8eb41	324	_ZN10CHelpPopup12UpdateCommonEv	CHelpPopup::UpdateCommon()
0x8ec85	1086	_ZN10CHelpPopup12DrawHelpModeEv	CHelpPopup::DrawHelpMode()
0x8f0c5	764	_ZN10CHelpPopup13DrawHowToModeEv	CHelpPopup::DrawHowToMode()
0x8f3c1	764	_ZN10CHelpPopup13DrawIntroModeEv	CHelpPopup::DrawIntroMode()
0x8f6bd	18	_ZN10CHelpPopup14UpdateHelpModeEv	CHelpPopup::UpdateHelpMode()
0x8f6d1	10	_ZN10CHelpPopup15UpdateHowToModeEv	CHelpPopup::UpdateHowToMode()
0x8f6dd	10	_ZN10CHelpPopup15UpdateIntroModeEv	CHelpPopup::UpdateIntroMode()
0x8f6e9	48	_ZN10CHelpPopup6UpDateEv	CHelpPopup::UpDate()
0x8f719	88	_ZN10CHelpPopup20EvPointerPressCommonE12GxPointerPos	CHelpPopup::EvPointerPressCommon()
0x8f771	94	_ZN10CHelpPopup14EvPointerPressE12GxPointerPos	CHelpPopup::EvPointerPress()
0x8f7d1	96	_ZN10CHelpPopup8BackDrawEv	CHelpPopup::BackDraw()
0x8f831	104	_ZN10CHelpPopup10DrawCommonEv	CHelpPopup::DrawCommon()
0x8f899	48	_ZN10CHelpPopup4DrawEv	CHelpPopup::Draw()
0x8f8c9	532	_ZN10CHelpPopup4InitEv	CHelpPopup::Init()
0x8fadd	40	_ZN10CHelpPopupD1Ev	CHelpPopup()
0x8fb05	18	_ZN10CHelpPopupD0Ev	CHelpPopup()
0x8fb19	40	_ZN10CHelpPopupD2Ev	CHelpPopup()
0x8fb41	80	_ZN10CHelpPopupC1EP10CPopUpBasehh	CHelpPopup()
0x8fb91	80	_ZN10CHelpPopupC2EP10CPopUpBasehh	CHelpPopup()
0x8fbe1	28	_ZN12CInputStreamC2El	CInputStream()
0x8fbfd	28	_ZN12CInputStreamC1El	CInputStream()
0x8fc19	24	_ZN12CInputStreamD2Ev	CInputStream()
0x8fc31	24	_ZN12CInputStreamD1Ev	CInputStream()
0x8fc49	4	_ZN12CInputStream9GetBufferEv	CInputStream::GetBuffer()
0x8fc4d	22	_ZN12CInputStream8readInt8Ev	CInputStream::readInt8()
0x8fc65	18	_ZN12CInputStream11readBooleanEv	CInputStream::readBoolean()
0x8fc79	12	_ZN12CInputStream9readUint8Ev	CInputStream::readUint8()
0x8fc85	32	_ZN12CInputStream9readInt16Ev	CInputStream::readInt16()
0x8fca5	12	_ZN12CInputStream10readUint16Ev	CInputStream::readUint16()
0x8fcb1	48	_ZN12CInputStream9readInt32Ev	CInputStream::readInt32()
0x8fce1	8	_ZN12CInputStream10readUint32Ev	CInputStream::readUint32()
0x8fce9	22	_ZN12CInputStream9readInt64Ev	CInputStream::readInt64()
0x8fd01	8	_ZN12CInputStream10readUint64Ev	CInputStream::readUint64()
0x8fd09	8	_ZN12CInputStream4skipEi	CInputStream::skip()
0x8fd11	32	_ZN12CInputStream8readDataEPhi	CInputStream::readData()
0x8fd31	36	_ZN12CInputStream10readStringEPci	CInputStream::readString()
0x8fd55	18	_ZN12CInputStreamD0Ev	CInputStream()
0x8fd69	2	_ZN13CItemBuyPopup11DeletePopUpEv	CItemBuyPopup::DeletePopUp()
0x8fd6c	20	_ZThn24_N13CItemBuyPopup9OnNetSendEv	_ZThn24_N13CItemBuyPopup9OnNetSendEv
0x8fd81	2	_ZN13CItemBuyPopup9OnNetSendEv	CItemBuyPopup::OnNetSend()
0x8fd85	150	_ZN13CItemBuyPopup6DeleteEv	CItemBuyPopup::Delete()
0x8fe1d	38	_ZN13CItemBuyPopup20GetCenterBoundingBoxER7TGXRECTP11CGxPZxFrame	CItemBuyPopup::GetCenterBoundingBox()
0x8fe45	152	_ZN13CItemBuyPopup17ConvertTouchPointERlS0_	CItemBuyPopup::ConvertTouchPoint()
0x8fedd	32	_ZN16CItemBuySubPopupD1Ev	CItemBuySubPopup()
0x8fefd	144	_ZN13CItemBuyPopup16SetBuyInfoStringEPci	CItemBuyPopup::SetBuyInfoString()
0x8ff8d	364	_ZN13CItemBuyPopup12GetSetStringEi	CItemBuyPopup::GetSetString()
0x900f9	212	_ZN13CItemBuyPopup19GetFigureInfoStringEiii	CItemBuyPopup::GetFigureInfoString()
0x901cd	112	_ZN13CItemBuyPopup19SetTickerInfoStringEv	CItemBuyPopup::SetTickerInfoString()
0x9023d	116	_ZN13CItemBuyPopup15DrawSetItemInfoEv	CItemBuyPopup::DrawSetItemInfo()
0x902b1	216	_ZN13CItemBuyPopup7ConnectE15EnumNetLinkType	CItemBuyPopup::Connect()
0x90388	20	_ZThn24_N13CItemBuyPopup10OnNetErrorEii	_ZThn24_N13CItemBuyPopup10OnNetErrorEii
0x9039d	96	_ZN13CItemBuyPopup10OnNetErrorEii	CItemBuyPopup::OnNetError()
0x903fd	44	_ZN16CItemBuySubPopup11DeletePopUpEv	CItemBuySubPopup::DeletePopUp()
0x90428	20	_ZThn24_N13CItemBuyPopup12OnNetReceiveEi	_ZThn24_N13CItemBuyPopup12OnNetReceiveEi
0x9043d	340	_ZN13CItemBuyPopup12OnNetReceiveEi	CItemBuyPopup::OnNetReceive()
0x90591	96	_ZN13CItemBuyPopup8BackDrawEv	CItemBuyPopup::BackDraw()
0x905f1	924	_ZN13CItemBuyPopup4DrawEv	CItemBuyPopup::Draw()
0x9098d	500	_ZN13CItemBuyPopup6UpDateEv	CItemBuyPopup::UpDate()
0x90b81	424	_ZN13CItemBuyPopup14EvPointerPressE12GxPointerPos	CItemBuyPopup::EvPointerPress()
0x90d29	836	_ZN13CItemBuyPopup4InitEv	CItemBuyPopup::Init()
0x9106d	60	_ZN13CItemBuyPopupD1Ev	CItemBuyPopup()
0x910a9	18	_ZN13CItemBuyPopupD0Ev	CItemBuyPopup()
0x910bd	60	_ZN13CItemBuyPopupD2Ev	CItemBuyPopup()
0x910f9	100	_ZN13CItemBuyPopupC1EP10CPopUpBaseh	CItemBuyPopup()
0x9115d	100	_ZN13CItemBuyPopupC2EP10CPopUpBaseh	CItemBuyPopup()
0x911c1	48	_ZN16CItemBuySubPopupC1EP10CPopUpBasePcS2_h	CItemBuySubPopup()
0x911f1	384	_ZN13CItemBuyPopup10KeyProcessEi	CItemBuyPopup::KeyProcess()
0x91371	48	_ZN16CItemBuySubPopupC2EP10CPopUpBasePcS2_h	CItemBuySubPopup()
0x913a1	40	_ZN16CItemBuySubPopupD0Ev	CItemBuySubPopup()
0x913c9	1468	_Z24KJH_DrawZeroImageFastAddP10CGxPZxZeroiiii	KJH_DrawZeroImageFastAdd()
0x91985	1528	_Z28KJH_DrawZeroImageFastBlend16P10CGxPZxZeroiiii	KJH_DrawZeroImageFastBlend16()
0x91f7d	752	_Z21KJH_DrawZeroImageFastP10CGxPZxZeroiiib	KJH_DrawZeroImageFast()
0x9226d	1902	_Z20KJH_DrawZeroImageAddP10CGxPZxZeroiiii	KJH_DrawZeroImageAdd()
0x929dd	1818	_Z24KJH_DrawZeroImageBlend16P10CGxPZxZeroiiii	KJH_DrawZeroImageBlend16()
0x930f9	1260	_Z17KJH_DrawZeroImageP10CGxPZxZeroiiib	KJH_DrawZeroImage()
0x935e5	1464	_Z28KJH_DrawZeroImageFlipFastAddP10CGxPZxZeroiiii	KJH_DrawZeroImageFlipFastAdd()
0x93b9d	1524	_Z32KJH_DrawZeroImageFlipFastBlend16P10CGxPZxZeroiiii	KJH_DrawZeroImageFlipFastBlend16()
0x94191	688	_Z25KJH_DrawZeroImageFlipFastP10CGxPZxZeroiii	KJH_DrawZeroImageFlipFast()
0x94441	1938	_Z24KJH_DrawZeroImageFlipAddP10CGxPZxZeroiiii	KJH_DrawZeroImageFlipAdd()
0x94bd5	1808	_Z28KJH_DrawZeroImageFlipBlend16P10CGxPZxZeroiiii	KJH_DrawZeroImageFlipBlend16()
0x952e5	1196	_Z21KJH_DrawZeroImageFlipP10CGxPZxZeroiii	KJH_DrawZeroImageFlip()
0x95791	2040	_Z30KJH_DrawZeroImageEnlageFastAddP10CGxPZxZeroiiiii	KJH_DrawZeroImageEnlageFastAdd()
0x95f89	2128	_Z34KJH_DrawZeroImageEnlageFastBlend16P10CGxPZxZeroiiiii	KJH_DrawZeroImageEnlageFastBlend16()
0x967d9	1100	_Z27KJH_DrawZeroImageEnlageFastP10CGxPZxZeroiiii	KJH_DrawZeroImageEnlageFast()
0x96c25	2274	_Z26KJH_DrawZeroImageEnlageAddP10CGxPZxZeroiiiii	KJH_DrawZeroImageEnlageAdd()
0x97509	2196	_Z30KJH_DrawZeroImageEnlageBlend16P10CGxPZxZeroiiiii	KJH_DrawZeroImageEnlageBlend16()
0x97d9d	1316	_Z23KJH_DrawZeroImageEnlageP10CGxPZxZeroiiii	KJH_DrawZeroImageEnlage()
0x982c1	2044	_Z34KJH_DrawZeroImageEnlageFlipFastAddP10CGxPZxZeroiiiii	KJH_DrawZeroImageEnlageFlipFastAdd()
0x98abd	2132	_Z38KJH_DrawZeroImageEnlageFlipFastBlend16P10CGxPZxZeroiiiii	KJH_DrawZeroImageEnlageFlipFastBlend16()
0x99311	1116	_Z31KJH_DrawZeroImageEnlageFlipFastP10CGxPZxZeroiiii	KJH_DrawZeroImageEnlageFlipFast()
0x9976d	2282	_Z30KJH_DrawZeroImageEnlageFlipAddP10CGxPZxZeroiiiii	KJH_DrawZeroImageEnlageFlipAdd()
0x9a059	2196	_Z34KJH_DrawZeroImageEnlageFlipBlend16P10CGxPZxZeroiiiii	KJH_DrawZeroImageEnlageFlipBlend16()
0x9a8ed	1308	_Z27KJH_DrawZeroImageEnlageFlipP10CGxPZxZeroiiii	KJH_DrawZeroImageEnlageFlip()
0x9ae09	36	_Z13KFastDistanceii	KFastDistance()
0x9ae2d	26	_Z11KCheckAnglei	KCheckAngle()
0x9ae49	88	_Z7KSin100i	KSin100()
0x9aea1	96	_Z7KCos100i	KCos100()
0x9af01	92	_Z7KTan100i	KTan100()
0x9af5d	84	_Z13KBinarySearchPtii	KBinarySearch()
0x9afb1	132	_Z6KATan2ii	KATan2()
0x9b035	20	_Z9KGetAngleiiii	KGetAngle()
0x9b049	68	_Z13KBinarySearchPsii	KBinarySearch()
0x9b08d	48	_Z19KIntersectionXPointiiii	KIntersectionXPoint()
0x9b0bd	34	_Z19KIntersectionXPointiiiii	KIntersectionXPoint()
0x9b0e1	36	_Z19KIntersectionYPointiiii	KIntersectionYPoint()
0x9b105	34	_Z19KIntersectionYPointiiiii	KIntersectionYPoint()
0x9b129	22	_Z14Fixed_Multiplell	Fixed_Multiple()
0x9b141	22	_Z12Fixed_Dividell	Fixed_Divide()
0x9b159	264	_Z7Bezier2P13tagGsPoint2DXii	Bezier2()
0x9b261	322	_Z7Bezier3P13tagGsPoint2DXii	Bezier3()
0x9b3a5	174	_Z14DoBezier3LogicP8stBezier	DoBezier3Logic()
0x9b455	146	_Z14DoBezier2LogicP8stBezier	DoBezier2Logic()
0x9b4e9	154	_Z11MoveNextPtnP13tagGsPoint2DXli	MoveNextPtn()
0x9b585	444	_Z10DrawSavingPc	DrawSaving()
0x9b741	2	_ZN10CBackLayer10DrawBufferEv	CBackLayer::DrawBuffer()
0x9b745	2	_ZN18CBackLayer_Pattern7DoLogicEv	CBackLayer_Pattern::DoLogic()
0x9b749	2	_ZN10CPathLayer4InitEv	CPathLayer::Init()
0x9b74d	4	_ZN10CPathLayer7DoLogicEii	CPathLayer::DoLogic()
0x9b751	2	_ZN10CPathLayer4DrawEii	CPathLayer::Draw()
0x9b755	8	_ZN10CLandLayer12GetPathLayerEi	CLandLayer::GetPathLayer()
0x9b75d	48	_ZN10CLandLayer15RemovePathLayerEi	CLandLayer::RemovePathLayer()
0x9b78d	4	_ZN10CLandLayer15GetPathLayerCntEv	CLandLayer::GetPathLayerCnt()
0x9b791	8	_ZN10CLandLayer10SetAddPosXEi	CLandLayer::SetAddPosX()
0x9b799	8	_ZN10CLandLayer10SetAddPosYEi	CLandLayer::SetAddPosY()
0x9b7a1	2	_ZN4CMap7LoadMapEhl	CMap::LoadMap()
0x9b7a5	2	_ZN4CMap4DrawEii	CMap::Draw()
0x9b7a9	2	_ZN4CMap8DrawBackEv	CMap::DrawBack()
0x9b7ad	2	_ZN4CMap18DoObjectVectorProcEv	CMap::DoObjectVectorProc()
0x9b7b1	2	_ZN4CMap7DoLogicEv	CMap::DoLogic()
0x9b7b5	2	_ZN4CMap11DoMapScrollEss	CMap::DoMapScroll()
0x9b7b9	8	_ZN16CBackObject_Beat7InitAddEv	CBackObject_Beat::InitAdd()
0x9b7c1	14	_ZN16CBackObject_Beat6SetAddEii	CBackObject_Beat::SetAdd()
0x9b7d1	42	_ZN16CBackObject_Beat7GetRectEv	CBackObject_Beat::GetRect()
0x9b7fd	340	_ZN10CBackLayer15CalculateScrollEv	CBackLayer::CalculateScroll()
0x9b951	484	_ZN10CBackLayer7DoLogicEv	CBackLayer::DoLogic()
0x9bb35	40	_ZN8CPatternC2EP11CGxPZxFrameh	CPattern()
0x9bb5d	40	_ZN8CPatternC1EP11CGxPZxFrameh	CPattern()
0x9bb85	24	_ZN8CPatternD2Ev	CPattern()
0x9bb9d	24	_ZN8CPatternD1Ev	CPattern()
0x9bbb5	8	_ZN10CLandLayer10GetPatternEi	CLandLayer::GetPattern()
0x9bbbd	42	_ZN5CPath16IsInnerPositionXEs	CPath::IsInnerPositionX()
0x9bbe9	42	_ZN5CPath16IsInnerPositionYEs	CPath::IsInnerPositionY()
0x9bc15	6	_ZN5CPath11SetPathTypeEsi	CPath::SetPathType()
0x9bc1d	6	_ZN5CPath11GetPathTypeEs	CPath::GetPathType()
0x9bc25	8	_ZN5CPath12GetPathAngleEs	CPath::GetPathAngle()
0x9bc2d	8	_ZN5CPath11GetPathPosXEs	CPath::GetPathPosX()
0x9bc35	8	_ZN5CPath11GetPathPosYEs	CPath::GetPathPosY()
0x9bc3d	18	_ZN5CPath12GetPathPosXYEsRsS0_	CPath::GetPathPosXY()
0x9bc51	8	_ZN10CPathLayer9GetObjectEh	CPathLayer::GetObject()
0x9bc59	48	_ZN10CPathLayer12DeleteObjectEh	CPathLayer::DeleteObject()
0x9bc89	236	_ZN4CMap6DeleteEv	CMap::Delete()
0x9bd75	120	_ZN4CMap26DrawBackLandLayerAniObjectEiih	CMap::DrawBackLandLayerAniObject()
0x9bded	154	_ZN4CMap27DrawFrontLandLayerAniObjectEiih	CMap::DrawFrontLandLayerAniObject()
0x9be89	40	_ZN4CMap17SetInitBackBufferEb	CMap::SetInitBackBuffer()
0x9beb1	18	_ZN4CMap12GetPathLayerEhh	CMap::GetPathLayer()
0x9bec5	26	_ZN4CMap9GetObjectEhhh	CMap::GetObject()
0x9bee1	20	_ZN4CMap7GetPathEhh	CMap::GetPath()
0x9bef5	24	_ZN4CMap11SetMapBoundEssss	CMap::SetMapBound()
0x9bf0d	380	_ZN4CMap10InitScrollEv	CMap::InitScroll()
0x9c089	106	_ZN4CMap15IsInMapViewRectEssss	CMap::IsInMapViewRect()
0x9c0f5	114	_ZN16CBackObject_Beat4DrawEii	CBackObject_Beat::Draw()
0x9c169	102	_ZN11CBackObject4DrawEii11eDrawOp_Nom	CBackObject::Draw()
0x9c1d1	64	_ZN10CPathLayerC1EP4CMap	CPathLayer()
0x9c211	64	_ZN10CPathLayerC2EP4CMap	CPathLayer()
0x9c251	100	_ZN10CLandLayerC1EP4CMap	CLandLayer()
0x9c2b5	100	_ZN10CLandLayerC2EP4CMap	CLandLayer()
0x9c319	206	_ZN18CBackLayer_Pattern4InitEv	CBackLayer_Pattern::Init()
0x9c3e9	240	_ZN10CBackLayer4InitEv	CBackLayer::Init()
0x9c4d9	184	_ZN10CBackLayerC1EP4CMapP7CPzxMgrP11CGxPZxFramesbbbb	CBackLayer()
0x9c591	184	_ZN10CBackLayerC2EP4CMapP7CPzxMgrP11CGxPZxFramesbbbb	CBackLayer()
0x9c649	52	_ZN18CBackLayer_PatternC1EP4CMapP7CPzxMgrP11CGxPZxFrame	CBackLayer_Pattern()
0x9c67d	52	_ZN18CBackLayer_PatternC2EP4CMapP7CPzxMgrP11CGxPZxFrame	CBackLayer_Pattern()
0x9c6b1	92	_ZN7CVectorIP10CPathLayerE10AddElementES1_	CVector()
0x9c70d	10	_ZN10CLandLayer12AddPathLayerEP10CPathLayer	CLandLayer::AddPathLayer()
0x9c719	44	_ZN7CVectorIP10CLandLayerED1Ev	CVector()
0x9c745	44	_ZN7CVectorIP10CBackLayerED1Ev	CVector()
0x9c771	44	_ZN7CVectorIP7CObjectED1Ev	CVector()
0x9c79d	44	_ZN7CVectorIP10CPathLayerED1Ev	CVector()
0x9c7c9	44	_ZN7CVectorIP8CPatternED1Ev	CVector()
0x9c7f5	44	_ZN7CVectorIP11CBackObjectED1Ev	CVector()
0x9c821	260	_ZN4CMap18GetTouchCapSuleValE12GxPointerPos	CMap::GetTouchCapSuleVal()
0x9c925	40	_ZN4CMap4InitEhl	CMap::Init()
0x9c94d	18	_ZN8CPatternD0Ev	CPattern()
0x9c961	276	_ZN4CMapC1EP7CMapMgrP4CNomS3_hl	CMap()
0x9ca75	276	_ZN4CMapC2EP7CMapMgrP4CNomS3_hl	CMap()
0x9cb89	1288	_ZN5CPath20GetCorrectionMovePosEPssshRs	CPath::GetCorrectionMovePos()
0x9d091	188	_ZN5CPath15GetPathIndexPosEss	CPath::GetPathIndexPos()
0x9d14d	92	_ZN5CPath16GetPathIndexPosYEs	CPath::GetPathIndexPosY()
0x9d1a9	424	_ZN5CPath21GetCorrectionMovePosXEPssRs	CPath::GetCorrectionMovePosX()
0x9d351	80	_ZN5CPath17GetCorrectionPosXEsRs	CPath::GetCorrectionPosX()
0x9d3a1	92	_ZN5CPath16GetPathIndexPosXEs	CPath::GetPathIndexPosX()
0x9d3fd	464	_ZN5CPath21GetCorrectionMovePosYEPssRs	CPath::GetCorrectionMovePosY()
0x9d5cd	80	_ZN5CPath17GetCorrectionPosYEsRs	CPath::GetCorrectionPosY()
0x9d61d	52	_ZN5CPathD1Ev	CPath()
0x9d651	18	_ZN5CPathD0Ev	CPath()
0x9d665	52	_ZN5CPathD2Ev	CPath()
0x9d699	68	_ZN5CPathC1Ei	CPath()
0x9d6dd	68	_ZN5CPathC2Ei	CPath()
0x9d721	76	_ZN8CPattern4DrawEii	CPattern::Draw()
0x9d76d	152	_ZN10CLandLayer4DrawEii	CLandLayer::Draw()
0x9d805	172	_ZN10CBackLayer4DrawEii	CBackLayer::Draw()
0x9d8b1	48	_ZN18CBackLayer_Pattern4DrawEii	CBackLayer_Pattern::Draw()
0x9d8e1	204	_ZN18CBackLayer_Pattern10DrawBufferEv	CBackLayer_Pattern::DrawBuffer()
0x9d9ad	252	_ZN11CBackObject7DoLogicEii	CBackObject::DoLogic()
0x9daa9	156	_ZN16CBackObject_Beat7DoLogicEii	CBackObject_Beat::DoLogic()
0x9db45	32	_ZN11CBackObjectD1Ev	CBackObject()
0x9db65	18	_ZN11CBackObjectD0Ev	CBackObject()
0x9db79	32	_ZN11CBackObjectD2Ev	CBackObject()
0x9db99	32	_ZN16CBackObject_BeatD1Ev	CBackObject_Beat()
0x9dbb9	18	_ZN16CBackObject_BeatD0Ev	CBackObject_Beat()
0x9dbcd	32	_ZN16CBackObject_BeatD2Ev	CBackObject_Beat()
0x9dbed	76	_ZN11CBackObjectC1EP4CMapP7CPzxMgriiiis	CBackObject()
0x9dc39	76	_ZN11CBackObjectC2EP4CMapP7CPzxMgriiiis	CBackObject()
0x9dc85	80	_ZN16CBackObject_BeatC1EP4CMapP7CPzxMgriiiiis	CBackObject_Beat()
0x9dcd5	80	_ZN16CBackObject_BeatC2EP4CMapP7CPzxMgriiiiis	CBackObject_Beat()
0x9dd25	136	_ZN10CBackLayerD1Ev	CBackLayer()
0x9ddad	18	_ZN10CBackLayerD0Ev	CBackLayer()
0x9ddc1	48	_ZN7CVectorIP11CBackObjectED0Ev	CVector()
0x9ddf1	136	_ZN10CBackLayerD2Ev	CBackLayer()
0x9de79	32	_ZN18CBackLayer_PatternD1Ev	CBackLayer_Pattern()
0x9de99	18	_ZN18CBackLayer_PatternD0Ev	CBackLayer_Pattern()
0x9dead	32	_ZN18CBackLayer_PatternD2Ev	CBackLayer_Pattern()
0x9decd	48	_ZN7CVectorIP8CPatternED0Ev	CVector()
0x9defd	48	_ZN7CVectorIP10CPathLayerED0Ev	CVector()
0x9df2d	188	_ZN10CLandLayerD1Ev	CLandLayer()
0x9dfe9	18	_ZN10CLandLayerD0Ev	CLandLayer()
0x9dffd	188	_ZN10CLandLayerD2Ev	CLandLayer()
0x9e0b9	48	_ZN7CVectorIP10CBackLayerED0Ev	CVector()
0x9e0e9	48	_ZN7CVectorIP10CLandLayerED0Ev	CVector()
0x9e119	116	_ZN4CMapD2Ev	CMap()
0x9e18d	48	_ZN7CVectorIP7CObjectED0Ev	CVector()
0x9e1bd	192	_ZN10CPathLayerD1Ev	CPathLayer()
0x9e27d	18	_ZN10CPathLayerD0Ev	CPathLayer()
0x9e291	192	_ZN10CPathLayerD2Ev	CPathLayer()
0x9e351	116	_ZN4CMapD1Ev	CMap()
0x9e3c5	18	_ZN4CMapD0Ev	CMap()
0x9e3d9	720	_ZN16CBackLayer_Decal7DoLogicEv	CBackLayer_Decal::DoLogic()
0x9e6a9	272	_ZN18CBackLayer_Shoting15CalculateScrollEv	CBackLayer_Shoting::CalculateScroll()
0x9e7b9	132	_ZN6CMap_J20DrawShawdowAniObjectEh	CMap_J::DrawShawdowAniObject()
0x9e83d	264	_ZN6CMap_J11DoMapScrollEii	CMap_J::DoMapScroll()
0x9e945	254	_ZN16CBackLayer_Decal4InitEv	CBackLayer_Decal::Init()
0x9ea45	1100	_ZN6CMap_J18DoObjectVectorProcEv	CMap_J::DoObjectVectorProc()
0x9ee91	92	_ZN7CVectorIP10CBackLayerE10AddElementES1_	CVector()
0x9eeed	92	_ZN7CVectorIP8CPatternE10AddElementES1_	CVector()
0x9ef49	92	_ZN7CVectorIP10CLandLayerE10AddElementES1_	CVector()
0x9efa5	228	_ZN6CMap_J7DoLogicEv	CMap_J::DoLogic()
0x9f089	84	_ZN6CMap_J8DrawBackEv	CMap_J::DrawBack()
0x9f0dd	196	_ZN6CMap_J8DrawHazeEbP7TGXRECT	CMap_J::DrawHaze()
0x9f1a1	1008	_ZN6CMap_J4DrawEii	CMap_J::Draw()
0x9f591	32	_ZN6CMap_JD1Ev	CMap_J()
0x9f5b1	18	_ZN6CMap_JD0Ev	CMap_J()
0x9f5c5	32	_ZN6CMap_JD2Ev	CMap_J()
0x9f5e5	64	_ZN18CBackLayer_Shoting4DrawEii	CBackLayer_Shoting::Draw()
0x9f625	32	_ZN18CBackLayer_ShotingD1Ev	CBackLayer_Shoting()
0x9f645	18	_ZN18CBackLayer_ShotingD0Ev	CBackLayer_Shoting()
0x9f659	32	_ZN18CBackLayer_ShotingD2Ev	CBackLayer_Shoting()
0x9f679	32	_ZN15CBackLayer_GateD1Ev	CBackLayer_Gate()
0x9f699	18	_ZN15CBackLayer_GateD0Ev	CBackLayer_Gate()
0x9f6ad	32	_ZN15CBackLayer_GateD2Ev	CBackLayer_Gate()
0x9f6cd	32	_ZN16CBackLayer_DecalD1Ev	CBackLayer_Decal()
0x9f6ed	18	_ZN16CBackLayer_DecalD0Ev	CBackLayer_Decal()
0x9f701	32	_ZN16CBackLayer_DecalD2Ev	CBackLayer_Decal()
0x9f721	100	_ZN18CBackLayer_ShotingC1EP4CMapP7CPzxMgrP11CGxPZxFramesbbbb	CBackLayer_Shoting()
0x9f785	100	_ZN18CBackLayer_ShotingC2EP4CMapP7CPzxMgrP11CGxPZxFramesbbbb	CBackLayer_Shoting()
0x9f7e9	64	_ZN15CBackLayer_GateC1EP4CMapP7CPzxMgrP11CGxPZxFrameis	CBackLayer_Gate()
0x9f829	64	_ZN15CBackLayer_GateC2EP4CMapP7CPzxMgrP11CGxPZxFrameis	CBackLayer_Gate()
0x9f869	60	_ZN16CBackLayer_DecalC1EP4CMapP7CPzxMgrP11CGxPZxFrames	CBackLayer_Decal()
0x9f8a5	2364	_ZN6CMap_J7LoadMapEhl	CMap_J::LoadMap()
0xa01e1	92	_ZN6CMap_JC1EP7CMapMgrP4CNomS3_hl	CMap_J()
0xa023d	92	_ZN6CMap_JC2EP7CMapMgrP4CNomS3_hl	CMap_J()
0xa0299	60	_ZN16CBackLayer_DecalC2EP4CMapP7CPzxMgrP11CGxPZxFrames	CBackLayer_Decal()
0xa02d5	480	_ZN15CBackLayer_Gate4DrawEii	CBackLayer_Gate::Draw()
0xa04b5	42	_ZN15CBackLayer_Gate7DoLogicEv	CBackLayer_Gate::DoLogic()
0xa04e1	2712	_ZN16CBackLayer_Decal4DrawEii	CBackLayer_Decal::Draw()
0xa0f79	2	_ZN17CBackLayer_Object4InitEv	CBackLayer_Object::Init()
0xa0f7d	2	_ZN17CBackLayer_Object7DoLogicEv	CBackLayer_Object::DoLogic()
0xa0f81	2	_ZN17CBackLayer_Bridle4InitEv	CBackLayer_Bridle::Init()
0xa0f85	2	_ZN6CMap_T22DoDecoObjectVectorProcEv	CMap_T::DoDecoObjectVectorProc()
0xa0f89	40	_ZN17CBackLayer_Object4DrawEii	CBackLayer_Object::Draw()
0xa0fb1	38	_ZN22CBackLayer_Object_Beat4DrawEii	CBackLayer_Object_Beat::Draw()
0xa0fd9	24	_ZN22CBackLayer_Object_Beat7SetBeatEhii	CBackLayer_Object_Beat::SetBeat()
0xa0ff1	44	_ZN25CBackLayer_Object_Gravity4DrawEii	CBackLayer_Object_Gravity::Draw()
0xa101d	140	_ZN17CPathLayer_Bridle4DrawEii	CPathLayer_Bridle::Draw()
0xa10a9	260	_ZN18CPathLayer_Gravity7DoLogicEii	CPathLayer_Gravity::DoLogic()
0xa11ad	40	_ZN12CPattern_AniC2EP10CAniObjecth	CPattern_Ani()
0xa11d5	40	_ZN12CPattern_AniC1EP10CAniObjecth	CPattern_Ani()
0xa11fd	44	_ZN12CPattern_AniD2Ev	CPattern_Ani()
0xa1229	44	_ZN12CPattern_AniD1Ev	CPattern_Ani()
0xa1255	50	_ZN12CPattern_Ani4DrawEii	CPattern_Ani::Draw()
0xa1289	134	_ZN6CMap_T13DrawLandLayerEiii	CMap_T::DrawLandLayer()
0xa1311	94	_ZN6CMap_T12DoLogicLayerEv	CMap_T::DoLogicLayer()
0xa1371	324	_ZN6CMap_T11DoMapScrollEii	CMap_T::DoMapScroll()
0xa14b5	88	_ZN9CMap_Beat8InitBeatEhiiihi	CMap_Beat::InitBeat()
0xa150d	66	_ZN11CMap_Bridle11DoMapScrollEii	CMap_Bridle::DoMapScroll()
0xa1551	20	_ZN11CMap_Bridle9SetRotateEiib	CMap_Bridle::SetRotate()
0xa1565	134	_ZN12CMap_Gravity13DrawLandLayerEiii	CMap_Gravity::DrawLandLayer()
0xa15ed	22	_ZN12CMap_Gravity10SetGravityEih	CMap_Gravity::SetGravity()
0xa1605	214	_ZN12CMap_Gravity11DoMapScrollEii	CMap_Gravity::DoMapScroll()
0xa16dd	92	_ZN7CVectorIP12CPattern_AniE10AddElementES1_	CVector()
0xa1739	92	_ZN7CVectorIP11CBackObjectE10AddElementES1_	CVector()
0xa1795	44	_ZN7CVectorIP12CPattern_AniED1Ev	CVector()
0xa17c1	212	_ZN10CMap_Earth10InitScrollEv	CMap_Earth::InitScroll()
0xa1895	110	_ZN25CBackLayer_Object_Gravity7DoLogicEv	CBackLayer_Object_Gravity::DoLogic()
0xa1905	232	_ZN10CMap_Earth22DoDecoObjectVectorProcEv	CMap_Earth::DoDecoObjectVectorProc()
0xa19ed	106	_ZN11CMap_Bounce8SetColorEi	CMap_Bounce::SetColor()
0xa1a59	460	_ZN10CMap_Earth4DrawEii	CMap_Earth::Draw()
0xa1c25	448	_ZN9CMap_Path4DrawEii	CMap_Path::Draw()
0xa1de5	464	_ZN12CMap_Gravity4DrawEii	CMap_Gravity::Draw()
0xa1fb5	484	_ZN6CMap_T4DrawEii	CMap_T::Draw()
0xa2199	8	_ZN13CMap_Illusion4DrawEii	CMap_Illusion::Draw()
0xa21a1	18	_ZN12CPattern_AniD0Ev	CPattern_Ani()
0xa21b5	412	_ZN9CMap_Path22DoDecoObjectVectorProcEv	CMap_Path::DoDecoObjectVectorProc()
0xa2351	404	_ZN12CMap_Gravity22DoDecoObjectVectorProcEv	CMap_Gravity::DoDecoObjectVectorProc()
0xa24e5	10	_ZN12CPattern_Ani7DoLogicEv	CPattern_Ani::DoLogic()
0xa24f1	30	_ZN18CLandLayer_Gravity7DoLogicEv	CLandLayer_Gravity::DoLogic()
0xa2511	616	_ZN12CMap_Gravity12DoLogicLayerEv	CMap_Gravity::DoLogicLayer()
0xa2779	348	_ZN11CMap_Bridle7DoLogicEv	CMap_Bridle::DoLogic()
0xa28d5	216	_ZN6CMap_T7DoLogicEv	CMap_T::DoLogic()
0xa29ad	18	_ZN10CMap_Earth7DoLogicEv	CMap_Earth::DoLogic()
0xa29c1	18	_ZN9CMap_Path7DoLogicEv	CMap_Path::DoLogic()
0xa29d5	26	_ZN13CMap_Illusion7DoLogicEv	CMap_Illusion::DoLogic()
0xa29f1	362	_ZN9CMap_Beat7DoLogicEv	CMap_Beat::DoLogic()
0xa2b5d	484	_ZN12CMap_Gravity7DoLogicEv	CMap_Gravity::DoLogic()
0xa2d41	628	_ZN9CMap_Beat4DrawEii	CMap_Beat::Draw()
0xa2fb5	440	_ZN11CMap_Bounce4DrawEii	CMap_Bounce::Draw()
0xa316d	302	_ZN13CMap_Illusion22DoDecoObjectVectorProcEv	CMap_Illusion::DoDecoObjectVectorProc()
0xa329d	74	_ZN17CPathLayer_Bridle4InitEv	CPathLayer_Bridle::Init()
0xa32e9	1686	_ZN6CMap_T18DoObjectVectorProcEv	CMap_T::DoObjectVectorProc()
0xa3981	84	_ZN6CMap_T13DrawBackLayerEiii	CMap_T::DrawBackLayer()
0xa39d5	48	_ZN15CPathLayer_Path4InitEv	CPathLayer_Path::Init()
0xa3a05	252	_ZN6CMap_T10CreateBodyEP4CNomhhhhhiii	CMap_T::CreateBody()
0xa3b01	384	_ZN18CLandLayer_Gravity4DrawEii	CLandLayer_Gravity::Draw()
0xa3c81	60	_ZN18CLandLayer_GravityC1EP4CMap	CLandLayer_Gravity()
0xa3cbd	60	_ZN18CLandLayer_GravityC2EP4CMap	CLandLayer_Gravity()
0xa3cf9	600	_ZN15CPathLayer_Path4DrawEii	CPathLayer_Path::Draw()
0xa3f51	52	_ZN15CPathLayer_PathD1Ev	CPathLayer_Path()
0xa3f85	18	_ZN15CPathLayer_PathD0Ev	CPathLayer_Path()
0xa3f99	52	_ZN15CPathLayer_PathD2Ev	CPathLayer_Path()
0xa3fcd	32	_ZN18CPathLayer_GravityD1Ev	CPathLayer_Gravity()
0xa3fed	18	_ZN18CPathLayer_GravityD0Ev	CPathLayer_Gravity()
0xa4001	32	_ZN18CPathLayer_GravityD2Ev	CPathLayer_Gravity()
0xa4021	32	_ZN17CPathLayer_BridleD1Ev	CPathLayer_Bridle()
0xa4041	18	_ZN17CPathLayer_BridleD0Ev	CPathLayer_Bridle()
0xa4055	32	_ZN17CPathLayer_BridleD2Ev	CPathLayer_Bridle()
0xa4075	40	_ZN15CPathLayer_PathC1EP4CMaph	CPathLayer_Path()
0xa409d	40	_ZN15CPathLayer_PathC2EP4CMaph	CPathLayer_Path()
0xa40c5	32	_ZN18CPathLayer_GravityC1EP4CMap	CPathLayer_Gravity()
0xa40e5	32	_ZN18CPathLayer_GravityC2EP4CMap	CPathLayer_Gravity()
0xa4105	36	_ZN17CPathLayer_BridleC1EP4CMap	CPathLayer_Bridle()
0xa4129	36	_ZN17CPathLayer_BridleC2EP4CMap	CPathLayer_Bridle()
0xa414d	730	_ZN17CPathLayer_Bridle7DoLogicEii	CPathLayer_Bridle::DoLogic()
0xa4429	204	_ZN15CBackLayer_Path4DrawEii	CBackLayer_Path::Draw()
0xa44f5	232	_ZN19CBackLayer_Illusion4DrawEii	CBackLayer_Illusion::Draw()
0xa45dd	32	_ZN15CBackLayer_PathD1Ev	CBackLayer_Path()
0xa45fd	18	_ZN15CBackLayer_PathD0Ev	CBackLayer_Path()
0xa4611	32	_ZN15CBackLayer_PathD2Ev	CBackLayer_Path()
0xa4631	32	_ZN17CBackLayer_BridleD1Ev	CBackLayer_Bridle()
0xa4651	18	_ZN17CBackLayer_BridleD0Ev	CBackLayer_Bridle()
0xa4665	32	_ZN17CBackLayer_BridleD2Ev	CBackLayer_Bridle()
0xa4685	32	_ZN19CBackLayer_IllusionD1Ev	CBackLayer_Illusion()
0xa46a5	18	_ZN19CBackLayer_IllusionD0Ev	CBackLayer_Illusion()
0xa46b9	32	_ZN19CBackLayer_IllusionD2Ev	CBackLayer_Illusion()
0xa46d9	128	_ZN17CBackLayer_ObjectD1Ev	CBackLayer_Object()
0xa4759	18	_ZN17CBackLayer_ObjectD0Ev	CBackLayer_Object()
0xa476d	128	_ZN17CBackLayer_ObjectD2Ev	CBackLayer_Object()
0xa47ed	32	_ZN25CBackLayer_Object_GravityD1Ev	CBackLayer_Object_Gravity()
0xa480d	18	_ZN25CBackLayer_Object_GravityD0Ev	CBackLayer_Object_Gravity()
0xa4821	32	_ZN25CBackLayer_Object_GravityD2Ev	CBackLayer_Object_Gravity()
0xa4841	32	_ZN24CBackLayer_Object_BridleD1Ev	CBackLayer_Object_Bridle()
0xa4861	18	_ZN24CBackLayer_Object_BridleD0Ev	CBackLayer_Object_Bridle()
0xa4875	32	_ZN24CBackLayer_Object_BridleD2Ev	CBackLayer_Object_Bridle()
0xa4895	32	_ZN22CBackLayer_Object_BeatD1Ev	CBackLayer_Object_Beat()
0xa48b5	18	_ZN22CBackLayer_Object_BeatD0Ev	CBackLayer_Object_Beat()
0xa48c9	32	_ZN22CBackLayer_Object_BeatD2Ev	CBackLayer_Object_Beat()
0xa48e9	96	_ZN15CBackLayer_PathC1EP4CMapP7CPzxMgrP11CGxPZxFramesbbbb	CBackLayer_Path()
0xa4949	96	_ZN15CBackLayer_PathC2EP4CMapP7CPzxMgrP11CGxPZxFramesbbbb	CBackLayer_Path()
0xa49a9	68	_ZN17CBackLayer_BridleC1EP4CMapP4CNomP7CPzxMgrP11CGxPZxFrames	CBackLayer_Bridle()
0xa49ed	68	_ZN17CBackLayer_BridleC2EP4CMapP4CNomP7CPzxMgrP11CGxPZxFrames	CBackLayer_Bridle()
0xa4a31	116	_ZN19CBackLayer_IllusionC1EP4CMapP7CPzxMgrP11CGxPZxFrameisbbbb	CBackLayer_Illusion()
0xa4aa5	116	_ZN19CBackLayer_IllusionC2EP4CMapP7CPzxMgrP11CGxPZxFrameisbbbb	CBackLayer_Illusion()
0xa4b19	64	_ZN17CBackLayer_ObjectC1EP4CMapP7CPzxMgrP11CGxPZxFrameis	CBackLayer_Object()
0xa4b59	64	_ZN17CBackLayer_ObjectC2EP4CMapP7CPzxMgrP11CGxPZxFrameis	CBackLayer_Object()
0xa4b99	76	_ZN25CBackLayer_Object_GravityC1EP4CMapP4CNomP7CPzxMgrP11CGxPZxFrameP5CPathis	CBackLayer_Object_Gravity()
0xa4be5	76	_ZN25CBackLayer_Object_GravityC2EP4CMapP4CNomP7CPzxMgrP11CGxPZxFrameP5CPathis	CBackLayer_Object_Gravity()
0xa4c31	60	_ZN24CBackLayer_Object_BridleC1EP4CMapP4CNomP7CPzxMgrP11CGxPZxFrameis	CBackLayer_Object_Bridle()
0xa4c6d	60	_ZN24CBackLayer_Object_BridleC2EP4CMapP4CNomP7CPzxMgrP11CGxPZxFrameis	CBackLayer_Object_Bridle()
0xa4ca9	76	_ZN22CBackLayer_Object_BeatC1EP4CMapP4CNomP7CPzxMgrP11CGxPZxFrameis	CBackLayer_Object_Beat()
0xa4cf5	5028	_ZN6CMap_T7LoadMapEhl	CMap_T::LoadMap()
0xa6099	100	_ZN6CMap_TC1EP7CMapMgrP4CNomS3_hl	CMap_T()
0xa60fd	100	_ZN6CMap_TC2EP7CMapMgrP4CNomS3_hl	CMap_T()
0xa6161	48	_ZN10CMap_EarthC1EP7CMapMgrP4CNomS3_hl	CMap_Earth()
0xa6191	48	_ZN10CMap_EarthC2EP7CMapMgrP4CNomS3_hl	CMap_Earth()
0xa61c1	236	_ZN9CMap_PathC1EP7CMapMgrP4CNomS3_hl	CMap_Path()
0xa62ad	236	_ZN9CMap_PathC2EP7CMapMgrP4CNomS3_hl	CMap_Path()
0xa6399	244	_ZN12CMap_GravityC1EP7CMapMgrP4CNomS3_hl	CMap_Gravity()
0xa648d	244	_ZN12CMap_GravityC2EP7CMapMgrP4CNomS3_hl	CMap_Gravity()
0xa6581	64	_ZN11CMap_BridleC1EP7CMapMgrP4CNomS3_hl	CMap_Bridle()
0xa65c1	64	_ZN11CMap_BridleC2EP7CMapMgrP4CNomS3_hl	CMap_Bridle()
0xa6601	72	_ZN11CMap_BounceC1EP7CMapMgrP4CNomS3_hl	CMap_Bounce()
0xa6649	72	_ZN11CMap_BounceC2EP7CMapMgrP4CNomS3_hl	CMap_Bounce()
0xa6691	192	_ZN13CMap_IllusionC1EP7CMapMgrP4CNomS3_hl	CMap_Illusion()
0xa6751	192	_ZN13CMap_IllusionC2EP7CMapMgrP4CNomS3_hl	CMap_Illusion()
0xa6811	628	_ZN9CMap_BeatC1EP7CMapMgrP4CNomS3_hl	CMap_Beat()
0xa6a85	628	_ZN9CMap_BeatC2EP7CMapMgrP4CNomS3_hl	CMap_Beat()
0xa6cf9	76	_ZN22CBackLayer_Object_BeatC2EP4CMapP4CNomP7CPzxMgrP11CGxPZxFrameis	CBackLayer_Object_Beat()
0xa6d45	176	_ZN17CBackLayer_Bridle4DrawEii	CBackLayer_Bridle::Draw()
0xa6df5	206	_ZN25CBackLayer_Object_Gravity4InitEv	CBackLayer_Object_Gravity::Init()
0xa6ec5	98	_ZN24CBackLayer_Object_Bridle7DoLogicEv	CBackLayer_Object_Bridle::DoLogic()
0xa6f29	178	_ZN24CBackLayer_Object_Bridle4InitEv	CBackLayer_Object_Bridle::Init()
0xa6fdd	1208	_ZN22CBackLayer_Object_Beat7DoLogicEv	CBackLayer_Object_Beat::DoLogic()
0xa7495	182	_ZN22CBackLayer_Object_Beat4InitEv	CBackLayer_Object_Beat::Init()
0xa754d	204	_ZN6CMap_TD2Ev	CMap_T()
0xa7619	32	_ZN10CMap_EarthD1Ev	CMap_Earth()
0xa7639	18	_ZN10CMap_EarthD0Ev	CMap_Earth()
0xa764d	32	_ZN10CMap_EarthD2Ev	CMap_Earth()
0xa766d	32	_ZN9CMap_PathD1Ev	CMap_Path()
0xa768d	18	_ZN9CMap_PathD0Ev	CMap_Path()
0xa76a1	32	_ZN9CMap_PathD2Ev	CMap_Path()
0xa76c1	32	_ZN12CMap_GravityD1Ev	CMap_Gravity()
0xa76e1	18	_ZN12CMap_GravityD0Ev	CMap_Gravity()
0xa76f5	32	_ZN12CMap_GravityD2Ev	CMap_Gravity()
0xa7715	32	_ZN11CMap_BridleD1Ev	CMap_Bridle()
0xa7735	18	_ZN11CMap_BridleD0Ev	CMap_Bridle()
0xa7749	32	_ZN11CMap_BridleD2Ev	CMap_Bridle()
0xa7769	32	_ZN11CMap_BounceD1Ev	CMap_Bounce()
0xa7789	18	_ZN11CMap_BounceD0Ev	CMap_Bounce()
0xa779d	32	_ZN11CMap_BounceD2Ev	CMap_Bounce()
0xa77bd	32	_ZN13CMap_IllusionD1Ev	CMap_Illusion()
0xa77dd	18	_ZN13CMap_IllusionD0Ev	CMap_Illusion()
0xa77f1	32	_ZN13CMap_IllusionD2Ev	CMap_Illusion()
0xa7811	64	_ZN9CMap_BeatD1Ev	CMap_Beat()
0xa7851	18	_ZN9CMap_BeatD0Ev	CMap_Beat()
0xa7865	64	_ZN9CMap_BeatD2Ev	CMap_Beat()
0xa78a5	48	_ZN7CVectorIP12CPattern_AniED0Ev	CVector()
0xa78d5	156	_ZN18CLandLayer_GravityD1Ev	CLandLayer_Gravity()
0xa7971	18	_ZN18CLandLayer_GravityD0Ev	CLandLayer_Gravity()
0xa7985	156	_ZN18CLandLayer_GravityD2Ev	CLandLayer_Gravity()
0xa7a21	204	_ZN6CMap_TD1Ev	CMap_T()
0xa7aed	18	_ZN6CMap_TD0Ev	CMap_T()
0xa7b01	4	_ZN7CMapMgr12SetParamaterEi	CMapMgr::SetParamater()
0xa7b05	12	_ZN7CMapMgr7CompareEP10CAniObjectS1_	CMapMgr::Compare()
0xa7b11	8	_ZN7CMapMgr7CompareEP10CAniObjecti	CMapMgr::Compare()
0xa7b19	8	_ZN7CMapMgr6EqualsEP10CAniObjectS1_	CMapMgr::Equals()
0xa7b21	6	_ZN7CMapMgr11GetKeyValueEP10CAniObject	CMapMgr::GetKeyValue()
0xa7b29	2	_ZN7CMapMgr4InitEb	CMapMgr::Init()
0xa7b2d	4	_ZN7CMapMgr7InitMapEhb	CMapMgr::InitMap()
0xa7b31	6	_ZN7CMapMgr15GetShadowPzxMgrEv	CMapMgr::GetShadowPzxMgr()
0xa7b39	6	_ZN7CMapMgr15GetEffectPzxMgrEv	CMapMgr::GetEffectPzxMgr()
0xa7b41	6	_ZN7CMapMgr13GetDecoPzxMgrEv	CMapMgr::GetDecoPzxMgr()
0xa7b49	6	_ZN7CMapMgr12GetMapPzxCntEv	CMapMgr::GetMapPzxCnt()
0xa7b51	10	_ZN7CMapMgr12GetMapPzxMgrEi	CMapMgr::GetMapPzxMgr()
0xa7b5d	22	_ZN7CMapMgr14GetOKKeyPzxMgrEv	CMapMgr::GetOKKeyPzxMgr()
0xa7b75	10	_ZN7CMapMgr15GetObjectPzxMgrEi	CMapMgr::GetObjectPzxMgr()
0xa7b81	10	_ZN7CMapMgr18GetObjectRotPzxMgrEi	CMapMgr::GetObjectRotPzxMgr()
0xa7b8d	10	_ZN7CMapMgr12GetNomPzxMgrEi	CMapMgr::GetNomPzxMgr()
0xa7b99	10	_ZN7CMapMgr15GetNomRotPzxMgrEi	CMapMgr::GetNomRotPzxMgr()
0xa7ba5	58	_ZN7CMapMgr9GetPzxMgrEii	CMapMgr::GetPzxMgr()
0xa7be1	42	_ZN7CMapMgr14FindObjectInfoE12eMonsterType	CMapMgr::FindObjectInfo()
0xa7c0d	8	_ZN7CMapMgr13GetObjectInfoEh	CMapMgr::GetObjectInfo()
0xa7c15	8	_ZN7CMapMgr12GetMapOffsetEh	CMapMgr::GetMapOffset()
0xa7c1d	22	_ZN7CMapMgr9DeleteMapEv	CMapMgr::DeleteMap()
0xa7c35	16	_ZN7CMapMgr4DrawEii	CMapMgr::Draw()
0xa7c45	14	_ZN7CMapMgr18SetActionKeyEnableEb	CMapMgr::SetActionKeyEnable()
0xa7c55	12	_ZN7CMapMgr13SetDrawObjectEb	CMapMgr::SetDrawObject()
0xa7c61	50	_ZN7CMapMgr9SetScrollEi	CMapMgr::SetScroll()
0xa7c95	10	_ZN7CMapMgr13SetScrollRateEhs	CMapMgr::SetScrollRate()
0xa7ca1	28	_ZN7CMapMgr16InitLandPalIndexEh	CMapMgr::InitLandPalIndex()
0xa7cbd	30	_ZN7CMapMgr15SetLandPalIndexEh	CMapMgr::SetLandPalIndex()
0xa7cdd	48	_ZN7CMapMgr7DoLogicEv	CMapMgr::DoLogic()
0xa7d0d	44	_ZN7CVectorIP14tagSObjectInfoED1Ev	CVector()
0xa7d39	44	_ZN7CVectorIP7CPzxMgrED1Ev	CVector()
0xa7d65	184	_ZN7CMapMgr6DeleteEv	CMapMgr::Delete()
0xa7e1d	108	_ZN7CMapMgrC1EP10CMapPzxMgr	CMapMgr()
0xa7e89	108	_ZN7CMapMgrC2EP10CMapPzxMgr	CMapMgr()
0xa7ef5	96	_ZN7CMapMgrD2Ev	CMapMgr()
0xa7f55	124	_ZN10CMapPzxMgrC1Ev	CMapPzxMgr()
0xa7fd1	124	_ZN10CMapPzxMgrC2Ev	CMapPzxMgr()
0xa804d	48	_ZN7CVectorIP14tagSObjectInfoED0Ev	CVector()
0xa807d	96	_ZN7CMapMgrD1Ev	CMapMgr()
0xa80dd	18	_ZN7CMapMgrD0Ev	CMapMgr()
0xa80f1	672	_ZN10CMapPzxMgrD1Ev	CMapPzxMgr()
0xa8391	18	_ZN10CMapPzxMgrD0Ev	CMapPzxMgr()
0xa83a5	48	_ZN7CVectorIP7CPzxMgrED0Ev	CVector()
0xa83d5	672	_ZN10CMapPzxMgrD2Ev	CMapPzxMgr()
0xa8675	24	_ZN9CMapMgr_J12SetSpaceTypeEi	CMapMgr_J::SetSpaceType()
0xa868d	92	_ZN7CVectorIP7CPzxMgrE10AddElementES1_	CVector()
0xa86e9	92	_ZN7CVectorIP14tagSObjectInfoE10AddElementES1_	CVector()
0xa8745	2596	_ZN9CMapMgr_J4InitEb	CMapMgr_J::Init()
0xa9169	32	_ZN9CMapMgr_JD1Ev	CMapMgr_J()
0xa9189	18	_ZN9CMapMgr_JD0Ev	CMapMgr_J()
0xa919d	32	_ZN9CMapMgr_JD2Ev	CMapMgr_J()
0xa91bd	56	_ZN9CMapMgr_JC1EbP10CMapPzxMgr	CMapMgr_J()
0xa91f5	56	_ZN9CMapMgr_JC2EbP10CMapPzxMgr	CMapMgr_J()
0xa922d	1264	_ZN9CMapMgr_J7InitMapEhb	CMapMgr_J::InitMap()
0xa971d	512	_ZN9CMapMgr_T10InitNomPosEP5CPathP4CNomhhih	CMapMgr_T::InitNomPos()
0xa991d	828	_ZN9CMapMgr_T7InitMapEhb	CMapMgr_T::InitMap()
0xa9c59	2800	_ZN9CMapMgr_T4InitEb	CMapMgr_T::Init()
0xaa749	32	_ZN9CMapMgr_TD1Ev	CMapMgr_T()
0xaa769	18	_ZN9CMapMgr_TD0Ev	CMapMgr_T()
0xaa77d	32	_ZN9CMapMgr_TD2Ev	CMapMgr_T()
0xaa79d	52	_ZN9CMapMgr_TC1Eb	CMapMgr_T()
0xaa7d1	52	_ZN9CMapMgr_TC2Eb	CMapMgr_T()
0xaa805	4	_ZN8CMonster7DoLogicEv	CMonster::DoLogic()
0xaa809	2	_ZN8CMonster4DrawEii10enumDrawOPil	CMonster::Draw()
0xaa80d	2	_ZN8CMonster15CheckCrashToNomEv	CMonster::CheckCrashToNom()
0xaa811	2	_ZN8CMonster20InitFSM_MONSTER_INITEv	CMonster::InitFSM_MONSTER_INIT()
0xaa815	2	_ZN8CMonster18DoFSM_MONSTER_INITEv	CMonster::DoFSM_MONSTER_INIT()
0xaa819	2	_ZN8CMonster28InitFSM_MONSTER_CHECK_ACTIVEEv	CMonster::InitFSM_MONSTER_CHECK_ACTIVE()
0xaa81d	2	_ZN8CMonster26DoFSM_MONSTER_CHECK_ACTIVEEv	CMonster::DoFSM_MONSTER_CHECK_ACTIVE()
0xaa821	2	_ZN8CMonster22InitFSM_MONSTER_ACTIVEEv	CMonster::InitFSM_MONSTER_ACTIVE()
0xaa825	2	_ZN8CMonster20DoFSM_MONSTER_ACTIVEEv	CMonster::DoFSM_MONSTER_ACTIVE()
0xaa829	2	_ZN8CMonster22InitFSM_MONSTER_DAMAGEEv	CMonster::InitFSM_MONSTER_DAMAGE()
0xaa82d	2	_ZN8CMonster20DoFSM_MONSTER_DAMAGEEv	CMonster::DoFSM_MONSTER_DAMAGE()
0xaa831	10	_ZN8CMonster8GetRangeEv	CMonster::GetRange()
0xaa83c	20	_ZThn228_N8CMonster12InitFsmLogicEv	_ZThn228_N8CMonster12InitFsmLogicEv
0xaa851	58	_ZN8CMonster12InitFsmLogicEv	CMonster::InitFsmLogic()
0xaa88c	20	_ZThn228_N8CMonster10DoFSMLogicEv	_ZThn228_N8CMonster10DoFSMLogicEv
0xaa8a1	192	_ZN8CMonster10DoFSMLogicEv	CMonster::DoFSMLogic()
0xaa961	44	_ZN8CMonster13CreateRectAniEiih	CMonster::CreateRectAni()
0xaa98d	46	_ZN8CMonster13SetSpacialAniEv	CMonster::SetSpacialAni()
0xaa9bd	376	_ZN8CMonster8IsActiveEv	CMonster::IsActive()
0xaab35	496	_ZN8CMonster10GetBombPosERiS0_	CMonster::GetBombPos()
0xaad25	128	_ZN8CMonster8IsShadowEv	CMonster::IsShadow()
0xaada5	172	_ZN8CMonster9SetDamageEv	CMonster::SetDamage()
0xaae50	20	_ZThn228_N8CMonsterD1Ev	_ZThn228_N8CMonsterD1Ev
0xaae65	48	_ZN8CMonsterD1Ev	CMonster()
0xaae94	20	_ZThn228_N8CMonsterD0Ev	_ZThn228_N8CMonsterD0Ev
0xaaea9	18	_ZN8CMonsterD0Ev	CMonster()
0xaaebd	48	_ZN8CMonsterD2Ev	CMonster()
0xaaeed	160	_ZN8CMonsterC1EPK14tagSObjectInfoP7CPzxMgrS4_P4CMap	CMonster()
0xaaf8d	160	_ZN8CMonsterC2EPK14tagSObjectInfoP7CPzxMgrS4_P4CMap	CMonster()
0xab02d	36	_ZN8CMonster22PushFSM_MONSTER_DAMAGEEv	CMonster::PushFSM_MONSTER_DAMAGE()
0xab051	2	_ZN10CMonster_J18DoFSM_MONSTER_INITEv	CMonster_J::DoFSM_MONSTER_INIT()
0xab055	2	_ZN16CMonster_Shoting18DoFSM_MONSTER_INITEv	CMonster_Shoting::DoFSM_MONSTER_INIT()
0xab059	14	_ZN10CMonster_J28InitFSM_MONSTER_CHECK_ACTIVEEv	CMonster_J::InitFSM_MONSTER_CHECK_ACTIVE()
0xab069	14	_ZN16CMonster_Shoting28InitFSM_MONSTER_CHECK_ACTIVEEv	CMonster_Shoting::InitFSM_MONSTER_CHECK_ACTIVE()
0xab079	52	_ZN16CMonster_Shoting6PROJ_XEii	CMonster_Shoting::PROJ_X()
0xab0ad	52	_ZN16CMonster_Shoting6PROJ_YEii	CMonster_Shoting::PROJ_Y()
0xab0e1	252	_ZN10CMonster_J10GetBombPosERiS0_	CMonster_J::GetBombPos()
0xab1dd	1056	_ZN16CMonster_Shoting22InitFSM_MONSTER_DAMAGEEv	CMonster_Shoting::InitFSM_MONSTER_DAMAGE()
0xab5fd	1240	_ZN10CMonster_J22InitFSM_MONSTER_DAMAGEEv	CMonster_J::InitFSM_MONSTER_DAMAGE()
0xabad5	424	_ZN16CMonster_Shoting8IsActiveEv	CMonster_Shoting::IsActive()
0xabc7d	424	_ZN10CMonster_J8IsActiveEv	CMonster_J::IsActive()
0xabe25	1488	_ZN16CMonster_Shoting22InitFSM_MONSTER_ACTIVEEv	CMonster_Shoting::InitFSM_MONSTER_ACTIVE()
0xac3f5	688	_ZN16CMonster_Shoting4DrawEii10enumDrawOPil	CMonster_Shoting::Draw()
0xac6a5	768	_ZN10CMonster_J4DrawEii10enumDrawOPil	CMonster_J::Draw()
0xac9a5	1656	_ZN14CMonster_Decal4DrawEii10enumDrawOPil	CMonster_Decal::Draw()
0xad01d	4018	_ZN10CMonster_J15CheckCrashToNomEv	CMonster_J::CheckCrashToNom()
0xadfd1	780	_ZN10CMonster_J11DoPathLogicEv	CMonster_J::DoPathLogic()
0xae2dd	224	_ZN10CMonster_J7DoLogicEv	CMonster_J::DoLogic()
0xae3bc	20	_ZThn228_N10CMonster_JD1Ev	_ZThn228_N10CMonster_JD1Ev
0xae3d1	40	_ZN10CMonster_JD1Ev	CMonster_J()
0xae3f8	20	_ZThn228_N10CMonster_JD0Ev	_ZThn228_N10CMonster_JD0Ev
0xae40d	18	_ZN10CMonster_JD0Ev	CMonster_J()
0xae421	40	_ZN10CMonster_JD2Ev	CMonster_J()
0xae448	20	_ZThn228_N16CMonster_ShotingD1Ev	_ZThn228_N16CMonster_ShotingD1Ev
0xae45d	40	_ZN16CMonster_ShotingD1Ev	CMonster_Shoting()
0xae484	20	_ZThn228_N16CMonster_ShotingD0Ev	_ZThn228_N16CMonster_ShotingD0Ev
0xae499	18	_ZN16CMonster_ShotingD0Ev	CMonster_Shoting()
0xae4ad	40	_ZN16CMonster_ShotingD2Ev	CMonster_Shoting()
0xae4d4	20	_ZThn228_N14CMonster_DecalD1Ev	_ZThn228_N14CMonster_DecalD1Ev
0xae4e9	40	_ZN14CMonster_DecalD1Ev	CMonster_Decal()
0xae510	20	_ZThn228_N14CMonster_DecalD0Ev	_ZThn228_N14CMonster_DecalD0Ev
0xae525	18	_ZN14CMonster_DecalD0Ev	CMonster_Decal()
0xae539	40	_ZN14CMonster_DecalD2Ev	CMonster_Decal()
0xae561	60	_ZN10CMonster_JC1EPK14tagSObjectInfoP7CPzxMgrS4_P4CMap	CMonster_J()
0xae59d	2652	_ZN10CMonster_J20DoFSM_MONSTER_ACTIVEEv	CMonster_J::DoFSM_MONSTER_ACTIVE()
0xaeff9	688	_ZN10CMonster_J20InitFSM_MONSTER_INITEv	CMonster_J::InitFSM_MONSTER_INIT()
0xaf2a9	1648	_ZN16CMonster_Shoting20InitFSM_MONSTER_INITEv	CMonster_Shoting::InitFSM_MONSTER_INIT()
0xaf919	60	_ZN10CMonster_JC2EPK14tagSObjectInfoP7CPzxMgrS4_P4CMap	CMonster_J()
0xaf955	172	_ZN16CMonster_ShotingC1EPK14tagSObjectInfoP7CPzxMgrS4_P4CMap	CMonster_Shoting()
0xafa01	440	_ZN10CMonster_J10FireBulletE12eMonsterTypeiiiii	CMonster_J::FireBullet()
0xafbb9	4360	_ZN16CMonster_Shoting20DoFSM_MONSTER_ACTIVEEv	CMonster_Shoting::DoFSM_MONSTER_ACTIVE()
0xb0cc1	172	_ZN16CMonster_ShotingC2EPK14tagSObjectInfoP7CPzxMgrS4_P4CMap	CMonster_Shoting()
0xb0d6d	124	_ZN14CMonster_DecalC1EPK14tagSObjectInfoP7CPzxMgrS4_P4CMap	CMonster_Decal()
0xb0de9	972	_ZN10CMonster_J22InitFSM_MONSTER_ACTIVEEv	CMonster_J::InitFSM_MONSTER_ACTIVE()
0xb11b5	124	_ZN14CMonster_DecalC2EPK14tagSObjectInfoP7CPzxMgrS4_P4CMap	CMonster_Decal()
0xb1231	46	_ZN4CNom22PushFSM_NOM_MOVE_LAYEREibiiib.clone.0	CNom::PushFSM_NOM_MOVE_LAYER()
0xb1261	2536	_ZN10CMonster_J20DoFSM_MONSTER_DAMAGEEv	CMonster_J::DoFSM_MONSTER_DAMAGE()
0xb1c49	1848	_ZN16CMonster_Shoting20DoFSM_MONSTER_DAMAGEEv	CMonster_Shoting::DoFSM_MONSTER_DAMAGE()
0xb2381	96	_ZN10CMonster_J26DoFSM_MONSTER_CHECK_ACTIVEEv	CMonster_J::DoFSM_MONSTER_CHECK_ACTIVE()
0xb23e1	96	_ZN16CMonster_Shoting26DoFSM_MONSTER_CHECK_ACTIVEEv	CMonster_Shoting::DoFSM_MONSTER_CHECK_ACTIVE()
0xb2441	296	_ZN16CMonster_Shoting9SetDamageEv	CMonster_Shoting::SetDamage()
0xb2569	2	_ZN10CMonster_T18DoFSM_MONSTER_INITEv	CMonster_T::DoFSM_MONSTER_INIT()
0xb256d	42	_ZN4CNom28PushFSM_NOM_DAMAGE_STAR_HARDEiii	CNom::PushFSM_NOM_DAMAGE_STAR_HARD()
0xb2599	42	_ZN4CNom26PushFSM_NOM_COLLISION_STAREiii	CNom::PushFSM_NOM_COLLISION_STAR()
0xb25c5	14	_ZN10CMonster_T28InitFSM_MONSTER_CHECK_ACTIVEEv	CMonster_T::InitFSM_MONSTER_CHECK_ACTIVE()
0xb25d5	5000	_ZN10CMonster_T20DoFSM_MONSTER_DAMAGEEv	CMonster_T::DoFSM_MONSTER_DAMAGE()
0xb395d	1004	_ZN10CMonster_T22InitFSM_MONSTER_ACTIVEEv	CMonster_T::InitFSM_MONSTER_ACTIVE()
0xb3d49	2184	_ZN10CMonster_T4DrawEii10enumDrawOPil	CMonster_T::Draw()
0xb45d1	584	_ZN10CMonster_T7DoLogicEv	CMonster_T::DoLogic()
0xb4818	20	_ZThn228_N10CMonster_TD1Ev	_ZThn228_N10CMonster_TD1Ev
0xb482d	40	_ZN10CMonster_TD1Ev	CMonster_T()
0xb4854	20	_ZThn228_N10CMonster_TD0Ev	_ZThn228_N10CMonster_TD0Ev
0xb4869	18	_ZN10CMonster_TD0Ev	CMonster_T()
0xb487d	40	_ZN10CMonster_TD2Ev	CMonster_T()
0xb48a5	52	_ZN10CMonster_TC1EPK14tagSObjectInfoP7CPzxMgrS4_P4CMap	CMonster_T()
0xb48d9	2280	_ZN10CMonster_T22InitFSM_MONSTER_DAMAGEEv	CMonster_T::InitFSM_MONSTER_DAMAGE()
0xb51c1	6714	_ZN10CMonster_T20DoFSM_MONSTER_ACTIVEEv	CMonster_T::DoFSM_MONSTER_ACTIVE()
0xb6bfd	52	_ZN10CMonster_TC2EPK14tagSObjectInfoP7CPzxMgrS4_P4CMap	CMonster_T()
0xb6c5d	6240	_ZN10CMonster_T15CheckCrashToNomEv	CMonster_T::CheckCrashToNom()
0xb84bd	196	_ZN10CMonster_T26DoFSM_MONSTER_CHECK_ACTIVEEv	CMonster_T::DoFSM_MONSTER_CHECK_ACTIVE()
0xb8581	664	_ZN10CMonster_T20InitFSM_MONSTER_INITEv	CMonster_T::InitFSM_MONSTER_INIT()
0xb8819	36	_ZN12CGsPhoneInfoD1Ev	CGsPhoneInfo()
0xb883d	2	_ZN6CMvApp5EvKeyEi	CMvApp::EvKey()
0xb8841	88	_ZN6CMvApp12EvKeyReleaseEi	CMvApp::EvKeyRelease()
0xb8899	124	_ZN6CMvApp10KeyProcessEv	CMvApp::KeyProcess()
0xb8915	296	_ZN6CMvApp12PointProcessEv	CMvApp::PointProcess()
0xb8a3d	36	_ZN6CMvApp10SetKeyFreeEv	CMvApp::SetKeyFree()
0xb8a61	44	_ZN6CMvApp15EvChargeSuccessEi	CMvApp::EvChargeSuccess()
0xb8a8d	44	_ZN6CMvApp12EvChargeFailEi	CMvApp::EvChargeFail()
0xb8ab9	36	_ZN12CGsSingletonI12CGsPhoneInfoED1Ev	CGsSingleton()
0xb8add	44	_ZN12CGsPhoneInfoD0Ev	CGsPhoneInfo()
0xb8b09	44	_ZN12CGsSingletonI12CGsPhoneInfoED0Ev	CGsSingleton()
0xb8b35	32	_ZN14CGameExitPopupD1Ev	CGameExitPopup()
0xb8b55	12	_ZN6CMvApp21GetStageMissionStringEi	CMvApp::GetStageMissionString()
0xb8b61	12	_ZN6CMvApp18GetStageNameStringEi	CMvApp::GetStageNameString()
0xb8b6d	12	_ZN6CMvApp15GetGlobalStringEi	CMvApp::GetGlobalString()
0xb8b79	104	_ZN6CMvApp15GetLegacySetNumEii	CMvApp::GetLegacySetNum()
0xb8be1	84	_ZN6CMvApp12GetAwardDataEii	CMvApp::GetAwardData()
0xb8c35	84	_ZN6CMvApp16GetLegacySetDataEii	CMvApp::GetLegacySetData()
0xb8c89	136	_ZN6CMvApp23GetLegacySetCompleteNumEv	CMvApp::GetLegacySetCompleteNum()
0xb8d11	84	_ZN6CMvApp21GetLegacyCapacityDataEii	CMvApp::GetLegacyCapacityData()
0xb8d65	84	_ZN6CMvApp13GetLegacyDataEii	CMvApp::GetLegacyData()
0xb8db9	84	_ZN6CMvApp12GetStageInfoEii	CMvApp::GetStageInfo()
0xb8e0d	72	_ZN6CMvApp20GetGlobalValenceDataEi	CMvApp::GetGlobalValenceData()
0xb8e55	76	_ZN6CMvApp8VibratorEi	CMvApp::Vibrator()
0xb8ea1	76	_ZN6CMvApp17IsDisAbleVibratorEv	CMvApp::IsDisAbleVibrator()
0xb8eed	324	_ZN6CMvApp9SoundPlayEibb	CMvApp::SoundPlay()
0xb9031	560	_ZN6CMvApp12SetStateInitEiiiii	CMvApp::SetStateInit()
0xb9261	136	_ZN6CMvApp18GameMsgGlobalCrackEP8CMessage	CMvApp::GameMsgGlobalCrack()
0xb92e9	122	_ZN6CMvApp12GameMsgCrackEv	CMvApp::GameMsgCrack()
0xb9365	60	_ZN8CMessageD1Ev	CMessage()
0xb93a1	18	_ZN8CMessageD0Ev	CMessage()
0xb93b5	44	_ZN5ArrayIiED1Ev	Array()
0xb93e1	44	_ZN6AQueueIP8CMessageED1Ev	AQueue()
0xb940d	44	_ZN5ArrayIP8CMessageED1Ev	Array()
0xb9439	80	_ZN5ArrayIiE6ResizeEi	Array()
0xb9489	276	_ZN6CMvApp10InitializeEv	CMvApp::Initialize()
0xb959d	84	_ZN6CMvApp3RunEv	CMvApp::Run()
0xb95f1	208	_ZN6CMvApp4DrawEv	CMvApp::Draw()
0xb96c1	56	_ZN14CGameExitPopup11DeletePopUpEv	CGameExitPopup::DeletePopUp()
0xb96f9	200	_ZN6CMvApp6UpdateEv	CMvApp::Update()
0xb97c1	46	_ZN6CMvApp13EvPointerMoveEP12GxPointerPos	CMvApp::EvPointerMove()
0xb97f1	76	_ZN6CMvApp16EvPointerReleaseEP12GxPointerPos	CMvApp::EvPointerRelease()
0xb983d	58	_ZN6CMvApp14EvPointerPressEP12GxPointerPos	CMvApp::EvPointerPress()
0xb9879	508	_ZN6CMvApp7ReleaseEv	CMvApp::Release()
0xb9a75	18	_ZN6CMvApp9EvAppStopEv	CMvApp::EvAppStop()
0xb9a89	40	_ZN6CMvAppD1Ev	CMvApp()
0xb9ab1	18	_ZN6CMvAppD0Ev	CMvApp()
0xb9ac5	40	_ZN6CMvAppD2Ev	CMvApp()
0xb9aed	40	_ZN6CMvAppC1Ev	CMvApp()
0xb9b15	20	_Z15GxCreateFrameT1v	GxCreateFrameT1()
0xb9b29	40	_ZN6CMvAppC2Ev	CMvApp()
0xb9b51	48	_ZN14CGameExitPopupC1EP10CPopUpBasePcS2_	CGameExitPopup()
0xb9b81	240	_ZN6CMvApp10EvKeyPressEi	CMvApp::EvKeyPress()
0xb9c71	48	_ZN14CGameExitPopupC2EP10CPopUpBasePcS2_	CGameExitPopup()
0xb9ca1	28	_Z18GxCreateGlobalHeapv	GxCreateGlobalHeap()
0xb9cbd	40	_ZN14CGameExitPopupD0Ev	CGameExitPopup()
0xb9ce5	48	_ZN5ArrayIiED0Ev	Array()
0xb9d15	48	_ZN5ArrayIP8CMessageED0Ev	Array()
0xb9d45	48	_ZN6AQueueIP8CMessageED0Ev	AQueue()
0xb9d75	372	_ZN6CMvApp8SetStateEiiiii	CMvApp::SetState()
0xb9ee9	96	_ZN6CMvApp11EvAppResumeEv	CMvApp::EvAppResume()
0xb9f49	80	_ZN6CMvApp12EvAppSuspendEv	CMvApp::EvAppSuspend()
0xb9f99	1160	_ZN6CMvApp10EvAppStartEv	CMvApp::EvAppStart()
0xba421	188	_ZN6CMvApp14EvBackKeyPressEv	CMvApp::EvBackKeyPress()
0xba4dd	2	_ZN6CScene10AppSuspendEv	CScene::AppSuspend()
0xba4e1	2	_ZN6CScene9AppResumeEv	CScene::AppResume()
0xba4e5	6	_ZN6CScene16EvPointerReleaseE12GxPointerPos	CScene::EvPointerRelease()
0xba4ed	2	_ZN10CPopUpBase8BackDrawEv	CPopUpBase::BackDraw()
0xba4f1	2	_ZN13CNGlobalPopUp11DeletePopUpEv	CNGlobalPopUp::DeletePopUp()
0xba4f5	2	_ZN9CGameLogo11KeyReleasedEi	CGameLogo::KeyReleased()
0xba4f9	2	_ZN9CGameLogo8MsgCrackEP8CMessage	CGameLogo::MsgCrack()
0xba4fd	38	_ZN9CLgtPopUp6DeleteEv	CLgtPopUp::Delete()
0xba525	26	_ZN9CLgtPopUp14EvPointerPressE12GxPointerPos	CLgtPopUp::EvPointerPress()
0xba541	16	_ZN9CLgtPopUp6UpDateEv	CLgtPopUp::UpDate()
0xba551	28	_ZN9CGameLogo11DoPlaySoundEv	CGameLogo::DoPlaySound()
0xba56d	76	_ZN9CGameLogo6DeleteEv	CGameLogo::Delete()
0xba5b9	196	_ZN9CGameLogo9DrawSceneEii	CGameLogo::DrawScene()
0xba67d	50	_ZN9CGameLogo14EvPointerPressE12GxPointerPos	CGameLogo::EvPointerPress()
0xba6b1	28	_ZN9CGameLogo10KeyPressedEi	CGameLogo::KeyPressed()
0xba6cd	40	_ZN9CGameLogoD1Ev	CGameLogo()
0xba6f5	18	_ZN9CGameLogoD0Ev	CGameLogo()
0xba709	40	_ZN9CGameLogoD2Ev	CGameLogo()
0xba731	624	_ZN9CLgtPopUp4DrawEv	CLgtPopUp::Draw()
0xba9a1	18	_ZN9CLgtPopUp10KeyProcessEi	CLgtPopUp::KeyProcess()
0xba9b5	40	_ZN9CLgtPopUpD1Ev	CLgtPopUp()
0xba9dd	18	_ZN9CLgtPopUpD0Ev	CLgtPopUp()
0xba9f1	40	_ZN9CLgtPopUpD2Ev	CLgtPopUp()
0xbaa19	144	_ZN9CLgtPopUpC1EPcS0_	CLgtPopUp()
0xbaaa9	144	_ZN9CLgtPopUpC2EPcS0_	CLgtPopUp()
0xbab39	32	_ZN8CKtPopUpD1Ev	CKtPopUp()
0xbab59	18	_ZN8CKtPopUpD0Ev	CKtPopUp()
0xbab6d	32	_ZN8CKtPopUpD2Ev	CKtPopUp()
0xbab8d	48	_ZN8CKtPopUpC1EP10CPopUpBasePcS2_	CKtPopUp()
0xbabbd	48	_ZN8CKtPopUpC2EP10CPopUpBasePcS2_	CKtPopUp()
0xbabed	240	_ZN9CGameLogo4InitEv	CGameLogo::Init()
0xbacdd	80	_ZN9CGameLogoC1Ev	CGameLogo()
0xbad2d	80	_ZN9CGameLogoC2Ev	CGameLogo()
0xbad7d	660	_ZN9CGameLogo8SetStateEv	CGameLogo::SetState()
0xbb011	116	_ZN9CGameLogo7DoLogicEv	CGameLogo::DoLogic()
0xbb085	2	_ZN18CN5GameSelectScene11KeyReleasedEi	CN5GameSelectScene::KeyReleased()
0xbb089	2	_ZN18CN5GameSelectScene8MsgCrackEP8CMessage	CN5GameSelectScene::MsgCrack()
0xbb08d	2	_ZN18CN5GameSelectScene10AppSuspendEv	CN5GameSelectScene::AppSuspend()
0xbb091	2	_ZN18CN5GameSelectScene9AppResumeEv	CN5GameSelectScene::AppResume()
0xbb095	48	_ZN18CN5GameSelectScene26ProcessNewGamePointerPressE12GxPointerPos	CN5GameSelectScene::ProcessNewGamePointerPress()
0xbb0c5	48	_ZN18CN5GameSelectScene26ProcessConGamePointerPressE12GxPointerPos	CN5GameSelectScene::ProcessConGamePointerPress()
0xbb0f5	84	_ZN18CN5GameSelectScene17ConvertTouchPointERlS0_	CN5GameSelectScene::ConvertTouchPoint()
0xbb149	66	_ZN18CN5GameSelectScene18CalculatePageIndexEi	CN5GameSelectScene::CalculatePageIndex()
0xbb18d	68	_ZN18CN5GameSelectScene12IsSelectableEi	CN5GameSelectScene::IsSelectable()
0xbb1d1	294	_ZN18CN5GameSelectScene15BackLayerUpdateEv	CN5GameSelectScene::BackLayerUpdate()
0xbb2f9	224	_ZN18CN5GameSelectScene10DrawBufferEv	CN5GameSelectScene::DrawBuffer()
0xbb3d9	48	_ZN18CN5GameSelectScene13ChangeChapterEb	CN5GameSelectScene::ChangeChapter()
0xbb409	118	_ZN18CN5GameSelectScene15BackLayerDeleteEv	CN5GameSelectScene::BackLayerDelete()
0xbb481	300	_ZN18CN5GameSelectScene6DeleteEv	CN5GameSelectScene::Delete()
0xbb5ad	318	_ZN18CN5GameSelectScene13BackLayerInitEv	CN5GameSelectScene::BackLayerInit()
0xbb6ed	300	_ZN18CN5GameSelectScene9SetSelectEv	CN5GameSelectScene::SetSelect()
0xbb819	896	_ZN18CN5GameSelectScene13DrawHighScoreEb	CN5GameSelectScene::DrawHighScore()
0xbbb99	10	_ZN18CN5GameSelectScene11DrawConGameEv	CN5GameSelectScene::DrawConGame()
0xbbba5	10	_ZN18CN5GameSelectScene11DrawNewGameEv	CN5GameSelectScene::DrawNewGame()
0xbbbb1	1226	_ZN18CN5GameSelectScene13DrawSpaceShipEiib	CN5GameSelectScene::DrawSpaceShip()
0xbc07d	14	_ZN18CN5GameSelectScene10DrawCommonEv	CN5GameSelectScene::DrawCommon()
0xbc08d	204	_ZN18CN5GameSelectScene15UpdateSpaceShipEv	CN5GameSelectScene::UpdateSpaceShip()
0xbc159	8	_ZN18CN5GameSelectScene12UpdateCommonEv	CN5GameSelectScene::UpdateCommon()
0xbc161	112	_ZN18CN5GameSelectScene17ProcessConGameKeyEi	CN5GameSelectScene::ProcessConGameKey()
0xbc1d1	36	_ZN18CN5GameSelectScene17ProcessNewGameKeyEi	CN5GameSelectScene::ProcessNewGameKey()
0xbc1f5	34	_ZN18CN5GameSelectScene16ProcessCommonKeyEi	CN5GameSelectScene::ProcessCommonKey()
0xbc219	276	_ZN18CN5GameSelectScene13UpdateConGameEv	CN5GameSelectScene::UpdateConGame()
0xbc32d	540	_ZN18CN5GameSelectScene12UpdateSelectEv	CN5GameSelectScene::UpdateSelect()
0xbc549	200	_ZN18CN5GameSelectScene13UpdateNewGameEv	CN5GameSelectScene::UpdateNewGame()
0xbc611	48	_ZN18CN5GameSelectScene7DoLogicEv	CN5GameSelectScene::DoLogic()
0xbc641	528	_ZN18CN5GameSelectScene25ProcessSelectPointerPressE12GxPointerPos	CN5GameSelectScene::ProcessSelectPointerPress()
0xbc851	652	_ZN18CN5GameSelectScene16ProcessSelectKeyEi	CN5GameSelectScene::ProcessSelectKey()
0xbcadd	60	_ZN18CN5GameSelectScene10KeyPressedEi	CN5GameSelectScene::KeyPressed()
0xbcb19	1140	_ZN18CN5GameSelectScene10DrawSelectEv	CN5GameSelectScene::DrawSelect()
0xbcf8d	48	_ZN18CN5GameSelectScene9DrawSceneEii	CN5GameSelectScene::DrawScene()
0xbcfbd	160	_ZN18CN5GameSelectScene25ProcessCommonPointerPressE12GxPointerPos	CN5GameSelectScene::ProcessCommonPointerPress()
0xbd05d	94	_ZN18CN5GameSelectScene14EvPointerPressE12GxPointerPos	CN5GameSelectScene::EvPointerPress()
0xbd0bd	852	_ZN18CN5GameSelectScene4InitEv	CN5GameSelectScene::Init()
0xbd411	40	_ZN18CN5GameSelectSceneD1Ev	CN5GameSelectScene()
0xbd439	18	_ZN18CN5GameSelectSceneD0Ev	CN5GameSelectScene()
0xbd44d	40	_ZN18CN5GameSelectSceneD2Ev	CN5GameSelectScene()
0xbd475	148	_ZN18CN5GameSelectSceneC1Ehhh	CN5GameSelectScene()
0xbd509	148	_ZN18CN5GameSelectSceneC2Ehhh	CN5GameSelectScene()
0xbd59d	2	_ZN12CN5MenuScene4InitEv	CN5MenuScene::Init()
0xbd5a1	2	_ZN12CN5MenuScene11KeyReleasedEi	CN5MenuScene::KeyReleased()
0xbd5a5	2	_ZN12CN5MenuScene8MsgCrackEP8CMessage	CN5MenuScene::MsgCrack()
0xbd5a9	8	_ZN12CN5MenuScene9AppResumeEv	CN5MenuScene::AppResume()
0xbd5b1	36	_ZN12CN5MenuScene16ProcessCommonKeyEi	CN5MenuScene::ProcessCommonKey()
0xbd5d5	96	_ZN12CN5MenuScene17ConvertTouchPointERlS0_	CN5MenuScene::ConvertTouchPoint()
0xbd635	294	_ZN12CN5MenuScene15BackLayerUpdateEv	CN5MenuScene::BackLayerUpdate()
0xbd75d	28	_ZN12CN5MenuScene14IsPlayingSoundEv	CN5MenuScene::IsPlayingSound()
0xbd779	84	_ZN12CN5MenuScene17GetChangeFrameIdxEi	CN5MenuScene::GetChangeFrameIdx()
0xbd7cd	48	_ZN6LQueueIiED1Ev	LQueue()
0xbd7fd	48	_ZN11DLinkedListIiED1Ev	DLinkedList()
0xbd82d	32	_ZN17CPlayMenuSubPopupD1Ev	CPlayMenuSubPopup()
0xbd84d	32	_ZN15COpenGlassPopupD1Ev	COpenGlassPopup()
0xbd86d	44	_ZN12CN5MenuScene13PlayBackSoundEv	CN5MenuScene::PlayBackSound()
0xbd899	32	_ZN12CN5MenuScene13StopBackSoundEv	CN5MenuScene::StopBackSound()
0xbd8b9	16	_ZN12CN5MenuScene10AppSuspendEv	CN5MenuScene::AppSuspend()
0xbd8c9	44	_ZN12CN5MenuScene16CreateBackBufferEv	CN5MenuScene::CreateBackBuffer()
0xbd8f5	188	_ZN12CN5MenuScene10DrawBufferEv	CN5MenuScene::DrawBuffer()
0xbd9b1	8	_ZN12CN5MenuScene8DrawBackEii	CN5MenuScene::DrawBack()
0xbd9b9	118	_ZN12CN5MenuScene15BackLayerDeleteEv	CN5MenuScene::BackLayerDelete()
0xbda31	208	_ZN12CN5MenuScene6DeleteEv	CN5MenuScene::Delete()
0xbdb01	314	_ZN12CN5MenuScene13BackLayerInitEv	CN5MenuScene::BackLayerInit()
0xbdc3d	142	_ZN12CN5MenuScene23ProcessPlayPointerPressE12GxPointerPos	CN5MenuScene::ProcessPlayPointerPress()
0xbdccd	142	_ZN12CN5MenuScene23ProcessMenuPointerPressE12GxPointerPos	CN5MenuScene::ProcessMenuPointerPress()
0xbdd5d	436	_ZN12CN5MenuScene11DrawNameBoxEb	CN5MenuScene::DrawNameBox()
0xbdf11	632	_ZN12CN5MenuScene22DrawSubMenuSubOutEventEiiii	CN5MenuScene::DrawSubMenuSubOutEvent()
0xbe189	22	_ZN12CN5MenuScene17DrawPointOutEventEv	CN5MenuScene::DrawPointOutEvent()
0xbe1a1	22	_ZN12CN5MenuScene19DrawRankingOutEventEv	CN5MenuScene::DrawRankingOutEvent()
0xbe1b9	784	_ZN12CN5MenuScene20DrawSubMenuSubNormalEiiiii	CN5MenuScene::DrawSubMenuSubNormal()
0xbe4c9	26	_ZN12CN5MenuScene15DrawPointNormalEv	CN5MenuScene::DrawPointNormal()
0xbe4e5	22	_ZN12CN5MenuScene9DrawPointEv	CN5MenuScene::DrawPoint()
0xbe4fd	26	_ZN12CN5MenuScene17DrawRankingNormalEv	CN5MenuScene::DrawRankingNormal()
0xbe519	22	_ZN12CN5MenuScene11DrawRankingEv	CN5MenuScene::DrawRanking()
0xbe531	768	_ZN12CN5MenuScene24DrawSubMenuOtherOutEventEiiiii	CN5MenuScene::DrawSubMenuOtherOutEvent()
0xbe831	80	_ZN12CN5MenuScene24DrawNetworkOtherOutEventEv	CN5MenuScene::DrawNetworkOtherOutEvent()
0xbe881	556	_ZN12CN5MenuScene19DrawSubMenuOutEventEii	CN5MenuScene::DrawSubMenuOutEvent()
0xbeaad	12	_ZN12CN5MenuScene19DrawNetworkOutEventEv	CN5MenuScene::DrawNetworkOutEvent()
0xbeab9	12	_ZN12CN5MenuScene16DrawHelpOutEventEv	CN5MenuScene::DrawHelpOutEvent()
0xbeac5	12	_ZN12CN5MenuScene18DrawFigureOutEventEv	CN5MenuScene::DrawFigureOutEvent()
0xbead1	768	_ZN12CN5MenuScene17DrawSubMenuNormalEiii	CN5MenuScene::DrawSubMenuNormal()
0xbedd1	14	_ZN12CN5MenuScene17DrawNetworkNormalEv	CN5MenuScene::DrawNetworkNormal()
0xbede1	36	_ZN12CN5MenuScene11DrawNetworkEv	CN5MenuScene::DrawNetwork()
0xbee05	14	_ZN12CN5MenuScene14DrawHelpNormalEv	CN5MenuScene::DrawHelpNormal()
0xbee15	22	_ZN12CN5MenuScene8DrawHelpEv	CN5MenuScene::DrawHelp()
0xbee2d	14	_ZN12CN5MenuScene16DrawFigureNormalEv	CN5MenuScene::DrawFigureNormal()
0xbee3d	22	_ZN12CN5MenuScene10DrawFigureEv	CN5MenuScene::DrawFigure()
0xbee55	404	_ZN12CN5MenuScene17DrawPlayOutEvent2Ev	CN5MenuScene::DrawPlayOutEvent2()
0xbefe9	412	_ZN12CN5MenuScene16DrawPlayOutEventEv	CN5MenuScene::DrawPlayOutEvent()
0xbf185	888	_ZN12CN5MenuScene14DrawPlayNormalEv	CN5MenuScene::DrawPlayNormal()
0xbf4fd	36	_ZN12CN5MenuScene8DrawPlayEv	CN5MenuScene::DrawPlay()
0xbf521	412	_ZN12CN5MenuScene23DrawMenuCenterOutEvent2Ev	CN5MenuScene::DrawMenuCenterOutEvent2()
0xbf6bd	408	_ZN12CN5MenuScene22DrawMenuCenterOutEventEv	CN5MenuScene::DrawMenuCenterOutEvent()
0xbf855	748	_ZN12CN5MenuScene16DrawMenuOutEventEv	CN5MenuScene::DrawMenuOutEvent()
0xbfb41	716	_ZN12CN5MenuScene14DrawMenuNormalEv	CN5MenuScene::DrawMenuNormal()
0xbfe0d	50	_ZN12CN5MenuScene8DrawMenuEv	CN5MenuScene::DrawMenu()
0xbfe41	168	_ZN12CN5MenuScene17ProcessRankingKeyEi	CN5MenuScene::ProcessRankingKey()
0xbfee9	48	_ZN12CN5MenuScene16ProcessOptionKeyEi	CN5MenuScene::ProcessOptionKey()
0xbff19	180	_ZN12CN5MenuScene14ProcessHelpKeyEi	CN5MenuScene::ProcessHelpKey()
0xbffcd	152	_ZN12CN5MenuScene16ProcessFigureKeyEi	CN5MenuScene::ProcessFigureKey()
0xc0065	484	_ZN12CN5MenuScene6DrawBgEv	CN5MenuScene::DrawBg()
0xc0249	8	_ZN12CN5MenuScene10DrawCommonEv	CN5MenuScene::DrawCommon()
0xc0251	74	_ZN11DLinkedListIiE6AppendEi	DLinkedList()
0xc029d	388	_ZN12CN5MenuScene24ProcessPointPointerPressE12GxPointerPos	CN5MenuScene::ProcessPointPointerPress()
0xc0421	388	_ZN12CN5MenuScene26ProcessRankingPointerPressE12GxPointerPos	CN5MenuScene::ProcessRankingPointerPress()
0xc05a5	304	_ZN12CN5MenuScene26ProcessNetworkPointerPressE12GxPointerPos	CN5MenuScene::ProcessNetworkPointerPress()
0xc06d5	308	_ZN12CN5MenuScene23ProcessHelpPointerPressE12GxPointerPos	CN5MenuScene::ProcessHelpPointerPress()
0xc0809	368	_ZN12CN5MenuScene25ProcessFigurePointerPressE12GxPointerPos	CN5MenuScene::ProcessFigurePointerPress()
0xc0979	236	_ZN12CN5MenuScene15ProcessPointKeyEi	CN5MenuScene::ProcessPointKey()
0xc0a65	224	_ZN12CN5MenuScene17ProcessNetworkKeyEi	CN5MenuScene::ProcessNetworkKey()
0xc0b45	38	_ZN12CN5MenuScene11UpdatePointEv	CN5MenuScene::UpdatePoint()
0xc0b6d	32	_ZN12CN5MenuScene13UpdateRankingEv	CN5MenuScene::UpdateRanking()
0xc0b8d	58	_ZN12CN5MenuScene13UpdateNetworkEv	CN5MenuScene::UpdateNetwork()
0xc0bc9	38	_ZN12CN5MenuScene10UpdateHelpEv	CN5MenuScene::UpdateHelp()
0xc0bf1	38	_ZN12CN5MenuScene12UpdateFigureEv	CN5MenuScene::UpdateFigure()
0xc0c19	44	_ZN12CN5MenuScene10UpdatePlayEv	CN5MenuScene::UpdatePlay()
0xc0c45	72	_ZN17CPlayMenuSubPopup11DeletePopUpEv	CPlayMenuSubPopup::DeletePopUp()
0xc0c8d	232	_ZN12CN5MenuScene14ProcessMenuKeyEi	CN5MenuScene::ProcessMenuKey()
0xc0d75	336	_ZN12CN5MenuScene10UpdateMenuEv	CN5MenuScene::UpdateMenu()
0xc0ec5	176	_ZN12CN5MenuScene25ProcessCommonPointerPressE12GxPointerPos	CN5MenuScene::ProcessCommonPointerPress()
0xc0f75	176	_ZN12CN5MenuScene14EvPointerPressE12GxPointerPos	CN5MenuScene::EvPointerPress()
0xc1025	156	_ZN12CN5MenuScene9DrawSceneEii	CN5MenuScene::DrawScene()
0xc10c1	728	_ZN12CN5MenuSceneC1E10eMenuStatehh	CN5MenuScene()
0xc1399	728	_ZN12CN5MenuSceneC2E10eMenuStatehh	CN5MenuScene()
0xc1671	56	_ZN17CPlayMenuSubPopupC1EP10CPopUpBasePcS2_bh	CPlayMenuSubPopup()
0xc16a9	412	_ZN12CN5MenuScene14ProcessPlayKeyEi	CN5MenuScene::ProcessPlayKey()
0xc1845	152	_ZN12CN5MenuScene10KeyPressedEi	CN5MenuScene::KeyPressed()
0xc18dd	56	_ZN17CPlayMenuSubPopupC2EP10CPopUpBasePcS2_bh	CPlayMenuSubPopup()
0xc1915	56	_ZN15COpenGlassPopupC1EP10CPopUpBasePcS2_bh	COpenGlassPopup()
0xc194d	56	_ZN15COpenGlassPopupC2EP10CPopUpBasePcS2_bh	COpenGlassPopup()
0xc1985	32	_ZN15COpenGlassPopup11DeletePopUpEv	COpenGlassPopup::DeletePopUp()
0xc19a5	40	_ZN17CPlayMenuSubPopupD0Ev	CPlayMenuSubPopup()
0xc19cd	40	_ZN15COpenGlassPopupD0Ev	COpenGlassPopup()
0xc19f5	56	_ZN11DLinkedListIiED0Ev	DLinkedList()
0xc1a2d	76	_ZN12CN5MenuSceneD2Ev	CN5MenuScene()
0xc1a79	56	_ZN6LQueueIiED0Ev	LQueue()
0xc1ab1	76	_ZN12CN5MenuSceneD1Ev	CN5MenuScene()
0xc1afd	18	_ZN12CN5MenuSceneD0Ev	CN5MenuScene()
0xc1b11	1016	_ZN12CN5MenuScene8SetStateEv	CN5MenuScene::SetState()
0xc1f09	544	_ZN12CN5MenuScene12UpdateCommonEv	CN5MenuScene::UpdateCommon()
0xc2129	124	_ZN12CN5MenuScene7DoLogicEv	CN5MenuScene::DoLogic()
0xc21a5	2	_ZN13CN5TitleScene4InitEv	CN5TitleScene::Init()
0xc21a9	2	_ZN13CN5TitleScene11KeyReleasedEi	CN5TitleScene::KeyReleased()
0xc21ad	2	_ZN13CN5TitleScene8MsgCrackEP8CMessage	CN5TitleScene::MsgCrack()
0xc21b1	8	_ZN13CN5TitleScene9AppResumeEv	CN5TitleScene::AppResume()
0xc21b9	26	_ZN13CN5TitleScene14EvPointerPressE12GxPointerPos	CN5TitleScene::EvPointerPress()
0xc21d5	28	_ZN13CN5TitleScene14IsPlayingSoundEv	CN5TitleScene::IsPlayingSound()
0xc21f1	744	_ZN13CN5TitleScene9DrawTitleEv	CN5TitleScene::DrawTitle()
0xc24d9	232	_ZN13CN5TitleScene8DrawBackEv	CN5TitleScene::DrawBack()
0xc25c1	180	_ZN13CN5TitleScene11DrawPatternEv	CN5TitleScene::DrawPattern()
0xc2675	36	_ZN13CN5TitleScene13PlayBackSoundEv	CN5TitleScene::PlayBackSound()
0xc2699	32	_ZN13CN5TitleScene13StopBackSoundEv	CN5TitleScene::StopBackSound()
0xc26b9	16	_ZN13CN5TitleScene10AppSuspendEv	CN5TitleScene::AppSuspend()
0xc26c9	120	_ZN13CN5TitleScene6DeleteEv	CN5TitleScene::Delete()
0xc2741	8	_ZN13CN5TitleScene9DrawSceneEii	CN5TitleScene::DrawScene()
0xc2749	88	_ZN13CN5TitleScene7DoLogicEv	CN5TitleScene::DoLogic()
0xc27a1	68	_ZN13CN5TitleScene10KeyPressedEi	CN5TitleScene::KeyPressed()
0xc27e5	44	_ZN13CN5TitleSceneD1Ev	CN5TitleScene()
0xc2811	18	_ZN13CN5TitleSceneD0Ev	CN5TitleScene()
0xc2825	44	_ZN13CN5TitleSceneD2Ev	CN5TitleScene()
0xc2851	360	_ZN13CN5TitleSceneC1Ev	CN5TitleScene()
0xc29b9	360	_ZN13CN5TitleSceneC2Ev	CN5TitleScene()
0xc2b21	2	_ZN4CNet22API_N5_CS_PAY_REGISTEREv	CNet::API_N5_CS_PAY_REGISTER()
0xc2b25	2	_ZN4CNet22API_N5_SC_PAY_REGISTEREv	CNet::API_N5_SC_PAY_REGISTER()
0xc2b29	2	_ZN4CNet14API_N5_CS_PINGEv	CNet::API_N5_CS_PING()
0xc2b2d	2	_ZN4CNet14API_N5_SC_PINGEv	CNet::API_N5_SC_PING()
0xc2b31	2	_ZN4CNet18API_N5_CS_GET_GIFTEv	CNet::API_N5_CS_GET_GIFT()
0xc2b35	2	_ZN4CNet21API_N5_CS_GET_MESSAGEEv	CNet::API_N5_CS_GET_MESSAGE()
0xc2b39	2	_ZN4CNet18API_N5_CS_GET_FILEEv	CNet::API_N5_CS_GET_FILE()
0xc2b3d	2	_ZN4CNet27API_N5_CS_GET_TOTAL_RANKINGEv	CNet::API_N5_CS_GET_TOTAL_RANKING()
0xc2b41	2	_ZN4CNet27API_N5_CS_GET_GROUP_RANKINGEv	CNet::API_N5_CS_GET_GROUP_RANKING()
0xc2b45	2	_ZN4CNet30API_N5_CS_GET_IN_GROUP_RANKINGEv	CNet::API_N5_CS_GET_IN_GROUP_RANKING()
0xc2b49	2	_ZN4CNet27API_N5_CS_SEND_GIFT_CONFIRMEv	CNet::API_N5_CS_SEND_GIFT_CONFIRM()
0xc2b4d	56	_ZN4CNet23API_N5_CS_DOWNLOAD_DATAEv	CNet::API_N5_CS_DOWNLOAD_DATA()
0xc2b85	2	_ZN4CNet31API_N5_CS_DOWNLOAD_DATA_CONFIRMEv	CNet::API_N5_CS_DOWNLOAD_DATA_CONFIRM()
0xc2b89	52	_ZN4CNet14SetBuyCoinInfoEi	CNet::SetBuyCoinInfo()
0xc2bbd	84	_ZN4CNet14SetBuyItemInfoEi	CNet::SetBuyItemInfo()
0xc2c11	56	_ZN4CNet15SetBuyGlassInfoEi	CNet::SetBuyGlassInfo()
0xc2c49	36	_ZN12CGsSingletonI4CNetED1Ev	CGsSingleton()
0xc2c6d	296	_ZN4CNet18SetMergeBackUpFileEv	CNet::SetMergeBackUpFile()
0xc2d95	44	_ZN4CNet21API_N5_SC_UPLOAD_DATAEv	CNet::API_N5_SC_UPLOAD_DATA()
0xc2dc1	16	_ZN4CNet19API_N5_SC_SEND_GIFTEv	CNet::API_N5_SC_SEND_GIFT()
0xc2dd1	16	_ZN4CNet22API_N5_SC_SINGLE_DATA1Ev	CNet::API_N5_SC_SINGLE_DATA1()
0xc2de1	48	_ZN4CNet13OnConnectDoneEv	CNet::OnConnectDone()
0xc2e11	132	_ZN4CNet8SendMainEv	CNet::SendMain()
0xc2e95	104	_ZN4CNet22API_N5_SC_SINGLE_DATA2Ev	CNet::API_N5_SC_SINGLE_DATA2()
0xc2efd	10	_ZN4CNet10DisconnectEv	CNet::Disconnect()
0xc2f09	232	_ZN4CNet31API_N5_SC_DOWNLOAD_DATA_CONFIRMEv	CNet::API_N5_SC_DOWNLOAD_DATA_CONFIRM()
0xc2ff1	108	_ZN4CNet27API_N5_SC_SEND_GIFT_CONFIRMEv	CNet::API_N5_SC_SEND_GIFT_CONFIRM()
0xc305d	22	_ZN4CNet21API_N5_SC_APP_AUTH_V5Ev	CNet::API_N5_SC_APP_AUTH_V5()
0xc3075	34	_ZN4CNet18API_N5_SC_BUY_ITEMEv	CNet::API_N5_SC_BUY_ITEM()
0xc3099	64	_ZN4CNet14OnConnectErrorEi	CNet::OnConnectError()
0xc30d9	60	_ZN4CNet9OnTimeOutEv	CNet::OnTimeOut()
0xc3115	308	_ZN4CNet7OnErrorEii	CNet::OnError()
0xc3249	16	_ZN4CNet10OnSendDoneEv	CNet::OnSendDone()
0xc3259	64	_ZN4CNet13ConnectServerEv	CNet::ConnectServer()
0xc3299	68	_ZN4CNet17ConnectRealServerEv	CNet::ConnectRealServer()
0xc32dd	96	_ZN4CNet10InitializeEv	CNet::Initialize()
0xc333d	200	_ZN4CNet7ConnectE15EnumNetLinkType	CNet::Connect()
0xc3405	44	_ZN12CGsSingletonI4CNetED0Ev	CGsSingleton()
0xc3430	20	_ZThn140_N4CNetD1Ev	_ZThn140_N4CNetD1Ev
0xc3445	92	_ZN4CNetD1Ev	CNet()
0xc34a0	20	_ZThn140_N4CNetD0Ev	_ZThn140_N4CNetD0Ev
0xc34b5	18	_ZN4CNetD0Ev	CNet()
0xc34c9	92	_ZN4CNetD2Ev	CNet()
0xc3525	244	_ZN4CNetC1Ei15EnumConnectType	CNet()
0xc3619	244	_ZN4CNetC2Ei15EnumConnectType	CNet()
0xc370d	456	_ZN4CNet22API_N5_CS_SINGLE_DATA2Ev	CNet::API_N5_CS_SINGLE_DATA2()
0xc38d5	276	_ZN4CNet22API_N5_CS_SINGLE_DATA1Ev	CNet::API_N5_CS_SINGLE_DATA1()
0xc39e9	52	_ZN4CNet31API_N5_CS_GET_EXCEPTION_MESSAGEEv	CNet::API_N5_CS_GET_EXCEPTION_MESSAGE()
0xc3a1d	108	_ZN4CNet21API_N5_CS_UPLOAD_DATAEv	CNet::API_N5_CS_UPLOAD_DATA()
0xc3a89	124	_ZN4CNet19API_N5_CS_SEND_GIFTEv	CNet::API_N5_CS_SEND_GIFT()
0xc3b05	32	_ZN4CNet29API_N5_CS_UPLOAD_DATA_CONFIRMEv	CNet::API_N5_CS_UPLOAD_DATA_CONFIRM()
0xc3b25	104	_ZN4CNet29API_N5_CS_GET_DISPATCH_SERVEREv	CNet::API_N5_CS_GET_DISPATCH_SERVER()
0xc3b8d	156	_ZN4CNet21API_N5_CS_APP_AUTH_V5Ev	CNet::API_N5_CS_APP_AUTH_V5()
0xc3c29	1184	_ZN4CNet17API_N5_CS_CONNECTEv	CNet::API_N5_CS_CONNECT()
0xc40c9	108	_ZN4CNet18API_N5_CS_BUY_ITEMEv	CNet::API_N5_CS_BUY_ITEM()
0xc4135	320	_ZN4CNet8SendBodyEt	CNet::SendBody()
0xc4275	108	_ZN4CNet21API_N5_SC_GET_MESSAGEEv	CNet::API_N5_SC_GET_MESSAGE()
0xc42e1	62	_ZN4CNet31API_N5_SC_GET_EXCEPTION_MESSAGEEv	CNet::API_N5_SC_GET_EXCEPTION_MESSAGE()
0xc4321	104	_ZN4CNet29API_N5_SC_GET_DISPATCH_SERVEREv	CNet::API_N5_SC_GET_DISPATCH_SERVER()
0xc4389	372	_ZN4CNet18API_N5_SC_GET_GIFTEv	CNet::API_N5_SC_GET_GIFT()
0xc44fd	516	_ZN4CNet18API_N5_SC_GET_FILEEv	CNet::API_N5_SC_GET_FILE()
0xc4701	376	_ZN4CNet30API_N5_SC_GET_IN_GROUP_RANKINGEv	CNet::API_N5_SC_GET_IN_GROUP_RANKING()
0xc4879	264	_ZN4CNet27API_N5_SC_GET_GROUP_RANKINGEv	CNet::API_N5_SC_GET_GROUP_RANKING()
0xc4981	376	_ZN4CNet27API_N5_SC_GET_TOTAL_RANKINGEv	CNet::API_N5_SC_GET_TOTAL_RANKING()
0xc4af9	120	_ZN4CNet23API_N5_SC_DOWNLOAD_DATAEv	CNet::API_N5_SC_DOWNLOAD_DATA()
0xc4b71	240	_ZN4CNet29API_N5_SC_UPLOAD_DATA_CONFIRMEv	CNet::API_N5_SC_UPLOAD_DATA_CONFIRM()
0xc4c61	476	_ZN4CNet17API_N5_SC_CONNECTEv	CNet::API_N5_SC_CONNECT()
0xc4e3d	456	_ZN4CNet10OnRecvDoneEv	CNet::OnRecvDone()
0xc5005	118	_ZN13CNGlobalPopUp6DeleteEv	CNGlobalPopUp::Delete()
0xc507d	2	_ZN13CNGlobalPopUp9AppResumeEv	CNGlobalPopUp::AppResume()
0xc5081	2	_ZN21CMisMachPhoneNumPopUp6UpDateEv	CMisMachPhoneNumPopUp::UpDate()
0xc5085	2	_ZN21CMisMachPhoneNumPopUp10AppSuspendEv	CMisMachPhoneNumPopUp::AppSuspend()
0xc5089	2	_ZN21CMisMachPhoneNumPopUp9AppResumeEv	CMisMachPhoneNumPopUp::AppResume()
0xc508d	22	_ZN21CMisMachPhoneNumPopUp14EvPointerPressE12GxPointerPos	CMisMachPhoneNumPopUp::EvPointerPress()
0xc50a5	12	_ZN21CMisMachPhoneNumPopUp10KeyProcessEi	CMisMachPhoneNumPopUp::KeyProcess()
0xc50b1	108	_ZN21CMisMachPhoneNumPopUp4DrawEv	CMisMachPhoneNumPopUp::Draw()
0xc511d	60	_ZN21CMisMachPhoneNumPopUp8BackDrawEv	CMisMachPhoneNumPopUp::BackDraw()
0xc5159	32	_ZN21CMisMachPhoneNumPopUpD1Ev	CMisMachPhoneNumPopUp()
0xc5179	18	_ZN21CMisMachPhoneNumPopUpD0Ev	CMisMachPhoneNumPopUp()
0xc518d	32	_ZN21CMisMachPhoneNumPopUpD2Ev	CMisMachPhoneNumPopUp()
0xc51ad	40	_ZN13CNGlobalPopUpD1Ev	CNGlobalPopUp()
0xc51d5	18	_ZN13CNGlobalPopUpD0Ev	CNGlobalPopUp()
0xc51e9	40	_ZN13CNGlobalPopUpD2Ev	CNGlobalPopUp()
0xc5211	32	_ZN12C3DInfoPopUpD1Ev	C3DInfoPopUp()
0xc5231	18	_ZN12C3DInfoPopUpD0Ev	C3DInfoPopUp()
0xc5245	32	_ZN12C3DInfoPopUpD2Ev	C3DInfoPopUp()
0xc5265	32	_ZN15C3DMessagePopUpD1Ev	C3DMessagePopUp()
0xc5285	18	_ZN15C3DMessagePopUpD0Ev	C3DMessagePopUp()
0xc5299	32	_ZN15C3DMessagePopUpD2Ev	C3DMessagePopUp()
0xc52b9	100	_ZN17CMissionInfoPopUpD1Ev	CMissionInfoPopUp()
0xc531d	18	_ZN17CMissionInfoPopUpD0Ev	CMissionInfoPopUp()
0xc5331	100	_ZN17CMissionInfoPopUpD2Ev	CMissionInfoPopUp()
0xc5395	36	_ZN21CMisMachPhoneNumPopUpC1Ev	CMisMachPhoneNumPopUp()
0xc53b9	36	_ZN21CMisMachPhoneNumPopUpC2Ev	CMisMachPhoneNumPopUp()
0xc53dd	86	_ZN12C3DInfoPopUp6UpDateEv	C3DInfoPopUp::UpDate()
0xc5435	86	_ZN15C3DMessagePopUp6UpDateEv	C3DMessagePopUp::UpDate()
0xc548d	400	_ZN12C3DInfoPopUp14EvPointerPressE12GxPointerPos	C3DInfoPopUp::EvPointerPress()
0xc561d	400	_ZN15C3DMessagePopUp14EvPointerPressE12GxPointerPos	C3DMessagePopUp::EvPointerPress()
0xc57ad	600	_ZN13CNGlobalPopUp14EvPointerPressE12GxPointerPos	CNGlobalPopUp::EvPointerPress()
0xc5a05	160	_ZN13CNGlobalPopUp6UpDateEv	CNGlobalPopUp::UpDate()
0xc5aa5	344	_ZN13CNGlobalPopUp10KeyProcessEi	CNGlobalPopUp::KeyProcess()
0xc5bfd	152	_ZN15C3DMessagePopUp10KeyProcessEi	C3DMessagePopUp::KeyProcess()
0xc5c95	92	_ZN13CNGlobalPopUp20GetCenterBoundingBoxEP11CGxPZxFramei	CNGlobalPopUp::GetCenterBoundingBox()
0xc5cf1	560	_ZN12C3DInfoPopUp8DrawBodyEv	C3DInfoPopUp::DrawBody()
0xc5f21	588	_ZN15C3DMessagePopUp8DrawBodyEv	C3DMessagePopUp::DrawBody()
0xc616d	600	_ZN17CMissionInfoPopUp8DrawBodyEv	CMissionInfoPopUp::DrawBody()
0xc63c5	660	_ZN13CNGlobalPopUp8DrawBodyEv	CNGlobalPopUp::DrawBody()
0xc6659	280	_ZN13CNGlobalPopUp4DrawEv	CNGlobalPopUp::Draw()
0xc6771	60	_ZN13CNGlobalPopUp8BackDrawEv	CNGlobalPopUp::BackDraw()
0xc67ad	32	_ZN13CNGlobalPopUp10AppSuspendEv	CNGlobalPopUp::AppSuspend()
0xc67cd	228	_ZN13CNGlobalPopUp4InitEv	CNGlobalPopUp::Init()
0xc68b1	452	_ZN13CNGlobalPopUpC1EP10CPopUpBasePcS2_hb	CNGlobalPopUp()
0xc6a75	176	_ZN12C3DInfoPopUp10KeyProcessEi	C3DInfoPopUp::KeyProcess()
0xc6b25	452	_ZN13CNGlobalPopUpC2EP10CPopUpBasePcS2_hb	CNGlobalPopUp()
0xc6ce9	64	_ZN12C3DInfoPopUpC1EP10CPopUpBasePcS2_h	C3DInfoPopUp()
0xc6d29	64	_ZN12C3DInfoPopUpC2EP10CPopUpBasePcS2_h	C3DInfoPopUp()
0xc6d69	64	_ZN15C3DMessagePopUpC1EP10CPopUpBasePcS2_h	C3DMessagePopUp()
0xc6da9	64	_ZN15C3DMessagePopUpC2EP10CPopUpBasePcS2_h	C3DMessagePopUp()
0xc6de9	232	_ZN17CMissionInfoPopUpC1EP10CPopUpBasei	CMissionInfoPopUp()
0xc6ed1	232	_ZN17CMissionInfoPopUpC2EP10CPopUpBasei	CMissionInfoPopUp()
0xc6fb9	68	_ZN13CNmBoltEffect18SetBoltObjectTraceEv	CNmBoltEffect::SetBoltObjectTrace()
0xc6ffd	18	_ZN13CNmBoltEffect7DoLogicEv	CNmBoltEffect::DoLogic()
0xc7011	60	_ZN8CGsArrayIP8TGXPOINTE14ExtendCapacityEi	CGsArray()
0xc704d	106	_ZN8CGsArrayIP8TGXPOINTE6InsertEiRS1_	CGsArray()
0xc70b9	88	_ZN13CNmBoltEffect13SetBoltVectorEi	CNmBoltEffect::SetBoltVector()
0xc7111	64	_ZN13CNmBoltEffect7SetBoltE12EnumBoltTypeiiii	CNmBoltEffect::SetBolt()
0xc7151	44	_ZN8CGsArrayIP8TGXPOINTED1Ev	CGsArray()
0xc717d	46	_ZN13CNmBoltEffect12ClearVectorsEv	CNmBoltEffect::ClearVectors()
0xc71ad	8	_ZN13CNmBoltEffect7ReleaseEv	CNmBoltEffect::Release()
0xc71b5	18	_ZN8CGsArrayIP8TGXPOINTED0Ev	CGsArray()
0xc71c9	112	_ZN13CNmBoltEffect7SetBoltE12EnumBoltType	CNmBoltEffect::SetBolt()
0xc7239	16	_ZN13CNmBoltEffect10InitializeEv	CNmBoltEffect::Initialize()
0xc7249	48	_ZN13CNmBoltEffectD1Ev	CNmBoltEffect()
0xc7279	18	_ZN13CNmBoltEffectD0Ev	CNmBoltEffect()
0xc728d	48	_ZN13CNmBoltEffectD2Ev	CNmBoltEffect()
0xc72bd	96	_ZN13CNmBoltEffectC1Ev	CNmBoltEffect()
0xc731d	96	_ZN13CNmBoltEffectC2Ev	CNmBoltEffect()
0xc737d	288	_ZN13CNmBoltEffect12DrawBoltLineEP8TGXPOINTS1_	CNmBoltEffect::DrawBoltLine()
0xc749d	214	_ZN13CNmBoltEffect15AddBoltVerticesE8TGXPOINTS0_i	CNmBoltEffect::AddBoltVertices()
0xc7575	204	_ZN13CNmBoltEffect15SetBoltVerticesEv	CNmBoltEffect::SetBoltVertices()
0xc7641	204	_ZN13CNmBoltEffect13DrawBoltLinesEv	CNmBoltEffect::DrawBoltLines()
0xc770d	44	_ZN13CNmBoltEffect4DrawEii	CNmBoltEffect::Draw()
0xc7739	4	_ZN7CObject8GetRangeEv	CObject::GetRange()
0xc773d	2	_ZN4CNom4InitEsissihhh	CNom::Init()
0xc7741	16	_ZN4CNom15SetLandLayerNumEh	CNom::SetLandLayerNum()
0xc7751	4	_ZN4CNom13GetBounceRectEv	CNom::GetBounceRect()
0xc7755	2	_ZN4CNom30InitFSM_NOM_DAMAGE_INSECTPLANTEiii	CNom::InitFSM_NOM_DAMAGE_INSECTPLANT()
0xc7759	2	_ZN4CNom28DoFSM_NOM_DAMAGE_INSECTPLANTEv	CNom::DoFSM_NOM_DAMAGE_INSECTPLANT()
0xc775d	46	_ZN4CNom18PushFSM_NOM_ATTACKEiiib	CNom::PushFSM_NOM_ATTACK()
0xc778d	44	_ZN4CNom16PushFSM_NOM_JUMPEiiii	CNom::PushFSM_NOM_JUMP()
0xc77b9	10	_ZN4CNom15GetTuchKeyValueE12GxPointerPos	CNom::GetTuchKeyValue()
0xc77c5	28	_ZN4CNom11KeyReleasedEi	CNom::KeyReleased()
0xc77e1	162	_ZN4CNom11DrawTalkBoxEii	CNom::DrawTalkBox()
0xc7885	96	_ZN4CNom10DamageWallEiih	CNom::DamageWall()
0xc78e5	78	_ZN4CNom17DamageInsectPlantEiih	CNom::DamageInsectPlant()
0xc7935	316	_ZN4CNom11CheckEndMapEv	CNom::CheckEndMap()
0xc7a71	20	_ZN4CNom11DoSetEffectEv	CNom::DoSetEffect()
0xc7a85	20	_ZN4CNom11DoEatEffectEv	CNom::DoEatEffect()
0xc7a99	14	_ZN4CNom13DoFiverEffectEv	CNom::DoFiverEffect()
0xc7aa9	128	_ZN4CNom8IsShadowEv	CNom::IsShadow()
0xc7b29	36	_ZN4CNom12IsDefaultFSMEv	CNom::IsDefaultFSM()
0xc7b4d	100	_ZN4CNom28InitFSM_NOM_CHANGE_QUARDRANTEi	CNom::InitFSM_NOM_CHANGE_QUARDRANT()
0xc7bb1	46	_ZN4CNom14DoLegacyEffectEv	CNom::DoLegacyEffect()
0xc7be1	86	_ZN4CNom21InitFSM_NOM_JUMP_HIGHEiiii	CNom::InitFSM_NOM_JUMP_HIGH()
0xc7c39	76	_ZN4CNom16InitFSM_NOM_JUMPEiiii	CNom::InitFSM_NOM_JUMP()
0xc7c85	42	_ZN4CNom23InitFSM_NOM_ATTACK_LONGEiii	CNom::InitFSM_NOM_ATTACK_LONG()
0xc7cb1	48	_ZN4CNom23InitFSM_NOM_ATTACK_WITHEiii	CNom::InitFSM_NOM_ATTACK_WITH()
0xc7ce1	42	_ZN4CNom18InitFSM_NOM_ATTACKEiiib	CNom::InitFSM_NOM_ATTACK()
0xc7d0d	88	_ZN4CNom23InitFSM_NOM_CATCH_BREAKEiiib	CNom::InitFSM_NOM_CATCH_BREAK()
0xc7d65	80	_ZN4CNom23InitFSM_NOM_DAMAGE_LONGEiii	CNom::InitFSM_NOM_DAMAGE_LONG()
0xc7db5	192	_ZN4CNom21InitFSM_NOM_JUMP_WALLEiiiii	CNom::InitFSM_NOM_JUMP_WALL()
0xc7e75	84	_ZN4CNom15DrawFiverEffectEv	CNom::DrawFiverEffect()
0xc7ec9	168	_ZN4CNom13DoFSM_NOM_RUNEv	CNom::DoFSM_NOM_RUN()
0xc7f71	54	_ZN4CNom17ActiveLuckyEffectEv	CNom::ActiveLuckyEffect()
0xc7fa9	54	_ZN4CNom19ActiveMiracleEffectEv	CNom::ActiveMiracleEffect()
0xc7fe1	138	_ZN4CNom11DamagePlateEb	CNom::DamagePlate()
0xc806d	360	_ZN4CNom12GetCenterPosERiS0_	CNom::GetCenterPos()
0xc81d5	348	_ZN4CNom16DrawLegacyEffectEii	CNom::DrawLegacyEffect()
0xc8331	336	_ZN4CNom13DrawEatEffectEii	CNom::DrawEatEffect()
0xc8481	336	_ZN4CNom13DrawSetEffectEii	CNom::DrawSetEffect()
0xc85d1	92	_ZN4CNom15SetDamageEffectEi	CNom::SetDamageEffect()
0xc862d	110	_ZN4CNom18InitFSM_NOM_DAMAGEEiiib	CNom::InitFSM_NOM_DAMAGE()
0xc869d	112	_ZN4CNom25InitFSM_NOM_DAMAGE_ATTACKEiii	CNom::InitFSM_NOM_DAMAGE_ATTACK()
0xc870d	144	_ZN4CNom5DeathEv	CNom::Death()
0xc879d	64	_ZN4CNom21DoFSM_NOM_DAMAGE_LONGEv	CNom::DoFSM_NOM_DAMAGE_LONG()
0xc87dd	104	_ZN4CNom15InitFSM_NOM_RUNEiiib	CNom::InitFSM_NOM_RUN()
0xc8845	120	_ZN4CNom10DamageBellEiih	CNom::DamageBell()
0xc88bd	100	_ZN4CNom10DamageLongEiih	CNom::DamageLong()
0xc8921	900	_ZN4CNom4DrawEii10enumDrawOPil	CNom::Draw()
0xc8ca5	130	_ZN4CNom7DoLogicEv	CNom::DoLogic()
0xc8d29	108	_ZN4CNom15KeyCapsuleLogicEP7CObjecti	CNom::KeyCapsuleLogic()
0xc8d95	668	_ZN4CNom12KeyWallLogicEP7CObject	CNom::KeyWallLogic()
0xc9031	1026	_ZN4CNom8KeyLogicEP7CObject	CNom::KeyLogic()
0xc9434	20	_ZThn228_N4CNomD1Ev	_ZThn228_N4CNomD1Ev
0xc9449	164	_ZN4CNomD1Ev	CNom()
0xc94ec	20	_ZThn228_N4CNomD0Ev	_ZThn228_N4CNomD0Ev
0xc9501	18	_ZN4CNomD0Ev	CNom()
0xc9515	164	_ZN4CNomD2Ev	CNom()
0xc95b9	384	_ZN4CNomC1EP7CPzxMgrS1_P4CMap	CNom()
0xc9739	384	_ZN4CNomC2EP7CPzxMgrS1_P4CMap	CNom()
0xc98b9	584	_ZN4CNom8KeyPressEi	CNom::KeyPress()
0xc9b01	68	_ZN4CNom12DamagePoisonEiihi	CNom::DamagePoison()
0xc9b45	64	_ZN4CNom19InitFSM_NOM_END_POSEv	CNom::InitFSM_NOM_END_POS()
0xc9b84	20	_ZThn228_N4CNom12InitFsmLogicEv	_ZThn228_N4CNom12InitFsmLogicEv
0xc9b99	396	_ZN4CNom12InitFsmLogicEv	CNom::InitFsmLogic()
0xc9d25	82	_ZN4CNom21DoFSM_NOM_DAMAGE_WALLEv	CNom::DoFSM_NOM_DAMAGE_WALL()
0xc9d79	112	_ZN4CNom12SetNomActiveEv	CNom::SetNomActive()
0xc9de9	136	_ZN4CNom23DoFSM_NOM_DAMAGE_ATTACKEv	CNom::DoFSM_NOM_DAMAGE_ATTACK()
0xc9e71	204	_ZN4CNom15DamageStarCrashEiih	CNom::DamageStarCrash()
0xc9f3d	100	_ZN4CNom21DoFSM_NOM_ATTACK_LONGEv	CNom::DoFSM_NOM_ATTACK_LONG()
0xc9fa1	94	_ZN4CNom21DoFSM_NOM_ATTACK_WITHEv	CNom::DoFSM_NOM_ATTACK_WITH()
0xca001	484	_ZN4CNom16InitFSM_NOM_INITEiiib	CNom::InitFSM_NOM_INIT()
0xca1e5	108	_ZN4CNom21DoFSM_NOM_CATCH_BREAKEv	CNom::DoFSM_NOM_CATCH_BREAK()
0xca251	200	_ZN4CNom19DoFSM_NOM_JUMP_WALLEv	CNom::DoFSM_NOM_JUMP_WALL()
0xca318	20	_ZThn228_N4CNom10DoFSMLogicEv	_ZThn228_N4CNom10DoFSMLogicEv
0xca32d	220	_ZN4CNom10DoFSMLogicEv	CNom::DoFSMLogic()
0xca409	256	_ZN4CNom6DamageEiihb	CNom::Damage()
0xca509	328	_ZN4CNom11DamageCatchEiihii	CNom::DamageCatch()
0xca651	244	_ZN4CNom14DoFSM_NOM_JUMPEv	CNom::DoFSM_NOM_JUMP()
0xca745	248	_ZN4CNom16DoFSM_NOM_DAMAGEEv	CNom::DoFSM_NOM_DAMAGE()
0xca83d	226	_ZN4CNom19DoFSM_NOM_JUMP_HIGHEv	CNom::DoFSM_NOM_JUMP_HIGH()
0xca921	228	_ZN4CNom16DoFSM_NOM_ATTACKEv	CNom::DoFSM_NOM_ATTACK()
0xcaa05	6	_ZN9CNom_Beat13GetBounceRectEv	CNom_Beat::GetBounceRect()
0xcaa0d	20	_ZN9CNom_Beat4DrawEii10enumDrawOPil	CNom_Beat::Draw()
0xcaa21	204	_ZN9CNom_Path4DrawEii10enumDrawOPil	CNom_Path::Draw()
0xcaaed	76	_ZN11CNom_Bounce4DrawEii10enumDrawOPil	CNom_Bounce::Draw()
0xcab39	30	_ZN12CNom_Gravity16InitFSM_NOM_INITEiiib	CNom_Gravity::InitFSM_NOM_INIT()
0xcab59	92	_ZN9CNom_Beat16InitFSM_NOM_INITEiiib	CNom_Beat::InitFSM_NOM_INIT()
0xcabb5	44	_ZN9CNom_Path25DoFSM_NOM_TRANSPLATE_JUMPEv	CNom_Path::DoFSM_NOM_TRANSPLATE_JUMP()
0xcabe1	30	_ZN9CNom_Path27DoFSM_NOM_TRANSPLATE_DAMAGEEv	CNom_Path::DoFSM_NOM_TRANSPLATE_DAMAGE()
0xcac01	86	_ZN11CNom_Bounce28DoFSM_NOM_ATTACK_STAR_STICKYEv	CNom_Bounce::DoFSM_NOM_ATTACK_STAR_STICKY()
0xcac59	50	_ZN12CNom_Gravity27DoFSM_NOM_CATCH_INSECTPLANTEv	CNom_Gravity::DoFSM_NOM_CATCH_INSECTPLANT()
0xcac8d	30	_ZN12CNom_Gravity24DoFSM_NOM_CHANGE_GRAVITYEv	CNom_Gravity::DoFSM_NOM_CHANGE_GRAVITY()
0xcacad	30	_ZN12CNom_Gravity22DoFSM_NOM_MOVE_GRAVITYEv	CNom_Gravity::DoFSM_NOM_MOVE_GRAVITY()
0xcaccd	48	_ZN9CNom_Path16InitFSM_NOM_JUMPEiiii	CNom_Path::InitFSM_NOM_JUMP()
0xcacfd	42	_ZN9CNom_Beat23InitFSM_NOM_ATTACK_LONGEiii	CNom_Beat::InitFSM_NOM_ATTACK_LONG()
0xcad29	80	_ZN11CNom_Bridle16InitFSM_NOM_JUMPEiiii	CNom_Bridle::InitFSM_NOM_JUMP()
0xcad79	56	_ZN11CNom_Bridle18InitFSM_NOM_ATTACKEiiib	CNom_Bridle::InitFSM_NOM_ATTACK()
0xcadb1	54	_ZN10CNom_Earth16InitFSM_NOM_JUMPEiiii	CNom_Earth::InitFSM_NOM_JUMP()
0xcade9	46	_ZN10CNom_Earth23InitFSM_NOM_ATTACK_WITHEiii	CNom_Earth::InitFSM_NOM_ATTACK_WITH()
0xcae19	48	_ZN11CNom_Bounce28InitFSM_NOM_ATTACK_STAR_HARDEiii	CNom_Bounce::InitFSM_NOM_ATTACK_STAR_HARD()
0xcae49	48	_ZN11CNom_Bounce29InitFSM_NOM_ATTACK_STAR_CRASHEiii	CNom_Bounce::InitFSM_NOM_ATTACK_STAR_CRASH()
0xcae79	42	_ZN11CNom_Bounce26InitFSM_NOM_COLLISION_STAREiii	CNom_Bounce::InitFSM_NOM_COLLISION_STAR()
0xcaea5	42	_ZN11CNom_Bounce33InitFSM_NOM_COLLISION_STAR_STICKYEiii	CNom_Bounce::InitFSM_NOM_COLLISION_STAR_STICKY()
0xcaed1	42	_ZN11CNom_Bounce30InitFSM_NOM_ATTACK_STAR_STICKYEiii	CNom_Bounce::InitFSM_NOM_ATTACK_STAR_STICKY()
0xcaefd	128	_ZN11CNom_Bounce23InitFSM_NOM_BOUNCE_STAREiii	CNom_Bounce::InitFSM_NOM_BOUNCE_STAR()
0xcaf7d	48	_ZN11CNom_Bounce23InitFSM_NOM_BOUNCE_LINEEiiiii	CNom_Bounce::InitFSM_NOM_BOUNCE_LINE()
0xcafad	100	_ZN11CNom_Bounce21InitFSM_NOM_BLACKHOLLEiii	CNom_Bounce::InitFSM_NOM_BLACKHOLL()
0xcb011	60	_ZN12CNom_Gravity26InitFSM_NOM_CHANGE_GRAVITYEiii	CNom_Gravity::InitFSM_NOM_CHANGE_GRAVITY()
0xcb04d	76	_ZN9CNom_Path26InitFSM_NOM_TRANSPLATE_RUNEiiiib	CNom_Path::InitFSM_NOM_TRANSPLATE_RUN()
0xcb099	122	_ZN12CNom_Gravity16InitFSM_NOM_JUMPEiiii	CNom_Gravity::InitFSM_NOM_JUMP()
0xcb115	52	_ZN9CNom_Beat22InitFSM_NOM_BEAT_STARTEiii	CNom_Beat::InitFSM_NOM_BEAT_START()
0xcb149	48	_ZN9CNom_Beat7SetBeatEihi	CNom_Beat::SetBeat()
0xcb179	68	_ZN12CNom_Gravity14SetGravitySignEb	CNom_Gravity::SetGravitySign()
0xcb1bd	88	_ZN9CNom_Beat15InitFSM_NOM_RUNEiiib	CNom_Beat::InitFSM_NOM_RUN()
0xcb215	120	_ZN11CNom_Bounce28DoFSM_NOM_DAMAGE_STAR_STICKYEv	CNom_Bounce::DoFSM_NOM_DAMAGE_STAR_STICKY()
0xcb28d	62	_ZN12CNom_Gravity30InitFSM_NOM_DAMAGE_INSECTPLANTEiii	CNom_Gravity::InitFSM_NOM_DAMAGE_INSECTPLANT()
0xcb2cd	70	_ZN12CNom_Gravity18InitFSM_NOM_DAMAGEEiiib	CNom_Gravity::InitFSM_NOM_DAMAGE()
0xcb315	56	_ZN9CNom_Beat18InitFSM_NOM_DAMAGEEiiib	CNom_Beat::InitFSM_NOM_DAMAGE()
0xcb34d	114	_ZN11CNom_Bridle18InitFSM_NOM_DAMAGEEiiib	CNom_Bridle::InitFSM_NOM_DAMAGE()
0xcb3c1	66	_ZN11CNom_Bridle23InitFSM_NOM_DAMAGE_BELLEiii	CNom_Bridle::InitFSM_NOM_DAMAGE_BELL()
0xcb405	84	_ZN11CNom_Bounce28InitFSM_NOM_DAMAGE_STAR_HARDEiii	CNom_Bounce::InitFSM_NOM_DAMAGE_STAR_HARD()
0xcb459	70	_ZN11CNom_Bounce29InitFSM_NOM_DAMAGE_STAR_CRASHEiii	CNom_Bounce::InitFSM_NOM_DAMAGE_STAR_CRASH()
0xcb4a1	56	_ZN11CNom_Bounce30InitFSM_NOM_DAMAGE_STAR_STICKYEiii	CNom_Bounce::InitFSM_NOM_DAMAGE_STAR_STICKY()
0xcb4d9	424	_ZN12CNom_Gravity13DoFSM_NOM_RUNEv	CNom_Gravity::DoFSM_NOM_RUN()
0xcb681	104	_ZN13CNom_Illusion13DoFSM_NOM_RUNEv	CNom_Illusion::DoFSM_NOM_RUN()
0xcb6e9	104	_ZN9CNom_Beat13DoFSM_NOM_RUNEv	CNom_Beat::DoFSM_NOM_RUN()
0xcb751	104	_ZN11CNom_Bridle13DoFSM_NOM_RUNEv	CNom_Bridle::DoFSM_NOM_RUN()
0xcb7b9	220	_ZN12CNom_Gravity15InitFSM_NOM_RUNEiiib	CNom_Gravity::InitFSM_NOM_RUN()
0xcb895	188	_ZN9CNom_Path13DoFSM_NOM_RUNEv	CNom_Path::DoFSM_NOM_RUN()
0xcb951	172	_ZN11CNom_Bounce21DoFSM_NOM_BOUNCE_LINEEv	CNom_Bounce::DoFSM_NOM_BOUNCE_LINE()
0xcb9fc	20	_ZThn228_N11CNom_Bridle10DoFSMLogicEv	_ZThn228_N11CNom_Bridle10DoFSMLogicEv
0xcba11	48	_ZN11CNom_Bridle10DoFSMLogicEv	CNom_Bridle::DoFSMLogic()
0xcba40	20	_ZThn228_N12CNom_Gravity10DoFSMLogicEv	_ZThn228_N12CNom_Gravity10DoFSMLogicEv
0xcba55	148	_ZN12CNom_Gravity10DoFSMLogicEv	CNom_Gravity::DoFSMLogic()
0xcbae8	20	_ZThn228_N11CNom_Bridle12InitFsmLogicEv	_ZThn228_N11CNom_Bridle12InitFsmLogicEv
0xcbafd	46	_ZN11CNom_Bridle12InitFsmLogicEv	CNom_Bridle::InitFsmLogic()
0xcbb2c	20	_ZThn228_N9CNom_Beat12InitFsmLogicEv	_ZThn228_N9CNom_Beat12InitFsmLogicEv
0xcbb41	46	_ZN9CNom_Beat12InitFsmLogicEv	CNom_Beat::InitFsmLogic()
0xcbb70	20	_ZThn228_N13CNom_Illusion12InitFsmLogicEv	_ZThn228_N13CNom_Illusion12InitFsmLogicEv
0xcbb85	20	_ZN13CNom_Illusion12InitFsmLogicEv	CNom_Illusion::InitFsmLogic()
0xcbb98	20	_ZThn228_N11CNom_Bounce12InitFsmLogicEv	_ZThn228_N11CNom_Bounce12InitFsmLogicEv
0xcbbad	284	_ZN11CNom_Bounce12InitFsmLogicEv	CNom_Bounce::InitFsmLogic()
0xcbcc9	168	_ZN10CNom_Earth28InitFSM_NOM_DAMAGE_PATH_WALLEiii	CNom_Earth::InitFSM_NOM_DAMAGE_PATH_WALL()
0xcbd70	20	_ZThn228_N10CNom_Earth12InitFsmLogicEv	_ZThn228_N10CNom_Earth12InitFsmLogicEv
0xcbd85	46	_ZN10CNom_Earth12InitFsmLogicEv	CNom_Earth::InitFsmLogic()
0xcbdb4	20	_ZThn228_N10CNom_EarthD1Ev	_ZThn228_N10CNom_EarthD1Ev
0xcbdc9	40	_ZN10CNom_EarthD1Ev	CNom_Earth()
0xcbdf0	20	_ZThn228_N10CNom_EarthD0Ev	_ZThn228_N10CNom_EarthD0Ev
0xcbe05	18	_ZN10CNom_EarthD0Ev	CNom_Earth()
0xcbe19	40	_ZN10CNom_EarthD2Ev	CNom_Earth()
0xcbe40	20	_ZThn228_N11CNom_BridleD1Ev	_ZThn228_N11CNom_BridleD1Ev
0xcbe55	40	_ZN11CNom_BridleD1Ev	CNom_Bridle()
0xcbe7c	20	_ZThn228_N11CNom_BridleD0Ev	_ZThn228_N11CNom_BridleD0Ev
0xcbe91	18	_ZN11CNom_BridleD0Ev	CNom_Bridle()
0xcbea5	40	_ZN11CNom_BridleD2Ev	CNom_Bridle()
0xcbecc	20	_ZThn228_N9CNom_BeatD1Ev	_ZThn228_N9CNom_BeatD1Ev
0xcbee1	40	_ZN9CNom_BeatD1Ev	CNom_Beat()
0xcbf08	20	_ZThn228_N9CNom_BeatD0Ev	_ZThn228_N9CNom_BeatD0Ev
0xcbf1d	18	_ZN9CNom_BeatD0Ev	CNom_Beat()
0xcbf31	40	_ZN9CNom_BeatD2Ev	CNom_Beat()
0xcbf58	20	_ZThn228_N13CNom_IllusionD1Ev	_ZThn228_N13CNom_IllusionD1Ev
0xcbf6d	40	_ZN13CNom_IllusionD1Ev	CNom_Illusion()
0xcbf94	20	_ZThn228_N13CNom_IllusionD0Ev	_ZThn228_N13CNom_IllusionD0Ev
0xcbfa9	18	_ZN13CNom_IllusionD0Ev	CNom_Illusion()
0xcbfbd	40	_ZN13CNom_IllusionD2Ev	CNom_Illusion()
0xcbfe4	20	_ZThn228_N9CNom_PathD1Ev	_ZThn228_N9CNom_PathD1Ev
0xcbff9	40	_ZN9CNom_PathD1Ev	CNom_Path()
0xcc020	20	_ZThn228_N9CNom_PathD0Ev	_ZThn228_N9CNom_PathD0Ev
0xcc035	18	_ZN9CNom_PathD0Ev	CNom_Path()
0xcc049	40	_ZN9CNom_PathD2Ev	CNom_Path()
0xcc070	20	_ZThn228_N11CNom_BounceD1Ev	_ZThn228_N11CNom_BounceD1Ev
0xcc085	40	_ZN11CNom_BounceD1Ev	CNom_Bounce()
0xcc0ac	20	_ZThn228_N11CNom_BounceD0Ev	_ZThn228_N11CNom_BounceD0Ev
0xcc0c1	18	_ZN11CNom_BounceD0Ev	CNom_Bounce()
0xcc0d5	40	_ZN11CNom_BounceD2Ev	CNom_Bounce()
0xcc0fc	20	_ZThn228_N12CNom_GravityD1Ev	_ZThn228_N12CNom_GravityD1Ev
0xcc111	64	_ZN12CNom_GravityD1Ev	CNom_Gravity()
0xcc150	20	_ZThn228_N12CNom_GravityD0Ev	_ZThn228_N12CNom_GravityD0Ev
0xcc165	18	_ZN12CNom_GravityD0Ev	CNom_Gravity()
0xcc179	64	_ZN12CNom_GravityD2Ev	CNom_Gravity()
0xcc1b9	48	_ZN10CNom_EarthC1EP7CPzxMgrS1_P4CMap	CNom_Earth()
0xcc1e9	48	_ZN10CNom_EarthC2EP7CPzxMgrS1_P4CMap	CNom_Earth()
0xcc219	40	_ZN11CNom_BridleC1EP7CPzxMgrS1_P4CMap	CNom_Bridle()
0xcc241	40	_ZN11CNom_BridleC2EP7CPzxMgrS1_P4CMap	CNom_Bridle()
0xcc269	40	_ZN13CNom_IllusionC1EP7CPzxMgrS1_P4CMap	CNom_Illusion()
0xcc291	40	_ZN13CNom_IllusionC2EP7CPzxMgrS1_P4CMap	CNom_Illusion()
0xcc2b9	48	_ZN9CNom_PathC1EP7CPzxMgrS1_P4CMap	CNom_Path()
0xcc2e9	48	_ZN9CNom_PathC2EP7CPzxMgrS1_P4CMap	CNom_Path()
0xcc319	40	_ZN11CNom_BounceC1EP7CPzxMgrS1_P4CMap	CNom_Bounce()
0xcc341	40	_ZN11CNom_BounceC2EP7CPzxMgrS1_P4CMap	CNom_Bounce()
0xcc369	48	_ZN12CNom_GravityC1EP7CPzxMgrS1_P4CMap	CNom_Gravity()
0xcc399	48	_ZN12CNom_GravityC2EP7CPzxMgrS1_P4CMap	CNom_Gravity()
0xcc3c9	172	_ZN11CNom_Bridle6DoJumpEv	CNom_Bridle::DoJump()
0xcc475	72	_ZN9CNom_BeatC1EP7CPzxMgrS1_P4CMap	CNom_Beat()
0xcc4bd	72	_ZN9CNom_BeatC2EP7CPzxMgrS1_P4CMap	CNom_Beat()
0xcc504	20	_ZThn228_N13CNom_Illusion10DoFSMLogicEv	_ZThn228_N13CNom_Illusion10DoFSMLogicEv
0xcc519	424	_ZN13CNom_Illusion10DoFSMLogicEv	CNom_Illusion::DoFSMLogic()
0xcc6c1	80	_ZN12CNom_Gravity24InitFSM_NOM_MOVE_GRAVITYEh	CNom_Gravity::InitFSM_NOM_MOVE_GRAVITY()
0xcc710	20	_ZThn228_N12CNom_Gravity12InitFsmLogicEv	_ZThn228_N12CNom_Gravity12InitFsmLogicEv
0xcc725	110	_ZN12CNom_Gravity12InitFsmLogicEv	CNom_Gravity::InitFsmLogic()
0xcc795	140	_ZN13CNom_Illusion13DrawTouchRectEiiiij	CNom_Illusion::DrawTouchRect()
0xcc821	568	_ZN13CNom_Illusion4DrawEii10enumDrawOPil	CNom_Illusion::Draw()
0xcca59	202	_ZN9CNom_Path8KeyLogicEP7CObject	CNom_Path::KeyLogic()
0xccb25	224	_ZN12CNom_Gravity8KeyLogicEP7CObject	CNom_Gravity::KeyLogic()
0xccc05	456	_ZN13CNom_Illusion8KeyLogicEP7CObject	CNom_Illusion::KeyLogic()
0xccdcd	364	_ZN13CNom_Illusion15GetTuchKeyValueE12GxPointerPos	CNom_Illusion::GetTuchKeyValue()
0xccf39	220	_ZN9CNom_Path24DoFSM_NOM_TRANSPLATE_RUNEv	CNom_Path::DoFSM_NOM_TRANSPLATE_RUN()
0xcd015	124	_ZN9CNom_Path24InitFSM_NOM_JUMP_ENDPATHEv	CNom_Path::InitFSM_NOM_JUMP_ENDPATH()
0xcd091	144	_ZN9CNom_Path26InitFSM_NOM_DAMAGE_ENDPATHEv	CNom_Path::InitFSM_NOM_DAMAGE_ENDPATH()
0xcd121	204	_ZN9CNom_Path29InitFSM_NOM_TRANSPLATE_DAMAGEEiiii	CNom_Path::InitFSM_NOM_TRANSPLATE_DAMAGE()
0xcd1ed	384	_ZN9CNom_Path27InitFSM_NOM_TRANSPLATE_JUMPEiiiib	CNom_Path::InitFSM_NOM_TRANSPLATE_JUMP()
0xcd36c	20	_ZThn228_N9CNom_Path12InitFsmLogicEv	_ZThn228_N9CNom_Path12InitFsmLogicEv
0xcd381	212	_ZN9CNom_Path12InitFsmLogicEv	CNom_Path::InitFsmLogic()
0xcd455	212	_ZN11CNom_Bounce19DoFSM_NOM_BLACKHOLLEv	CNom_Bounce::DoFSM_NOM_BLACKHOLL()
0xcd529	220	_ZN12CNom_Gravity4DrawEii10enumDrawOPil	CNom_Gravity::Draw()
0xcd605	42	_ZN4CNom23PushFSM_NOM_CATCH_BREAKEiiib.clone.0	CNom::PushFSM_NOM_CATCH_BREAK()
0xcd631	192	_ZN13CNom_Illusion6DamageEiihb	CNom_Illusion::Damage()
0xcd6f1	42	_ZN4CNom15PushFSM_NOM_RUNEiiib.clone.1	CNom::PushFSM_NOM_RUN()
0xcd71d	368	_ZN10CNom_Earth13DoFSM_NOM_RUNEv	CNom_Earth::DoFSM_NOM_RUN()
0xcd88d	476	_ZN13CNom_Illusion8KeyPressEi	CNom_Illusion::KeyPress()
0xcda69	412	_ZN9CNom_Path8KeyPressEi	CNom_Path::KeyPress()
0xcdc05	296	_ZN9CNom_Path28DoFSM_NOM_TRANSPLATE_LANDINGEv	CNom_Path::DoFSM_NOM_TRANSPLATE_LANDING()
0xcdd2d	100	_ZN11CNom_Bridle16DoFSM_NOM_ATTACKEv	CNom_Bridle::DoFSM_NOM_ATTACK()
0xcdd91	132	_ZN10CNom_Earth26DoFSM_NOM_DAMAGE_PATH_WALLEv	CNom_Earth::DoFSM_NOM_DAMAGE_PATH_WALL()
0xcde14	20	_ZThn228_N10CNom_Earth10DoFSMLogicEv	_ZThn228_N10CNom_Earth10DoFSMLogicEv
0xcde29	36	_ZN10CNom_Earth10DoFSMLogicEv	CNom_Earth::DoFSMLogic()
0xcde4d	148	_ZN11CNom_Bounce27DoFSM_NOM_DAMAGE_STAR_CRASHEv	CNom_Bounce::DoFSM_NOM_DAMAGE_STAR_CRASH()
0xcdee1	176	_ZN9CNom_Path21DoFSM_NOM_UPDOWNPALTEEv	CNom_Path::DoFSM_NOM_UPDOWNPALTE()
0xcdf91	104	_ZN9CNom_Path24DoFSM_NOM_DAMAGE_ENDPATHEv	CNom_Path::DoFSM_NOM_DAMAGE_ENDPATH()
0xcdff9	100	_ZN11CNom_Bounce27DoFSM_NOM_ATTACK_STAR_CRASHEv	CNom_Bounce::DoFSM_NOM_ATTACK_STAR_CRASH()
0xce05d	88	_ZN10CNom_Earth21DoFSM_NOM_ATTACK_WITHEv	CNom_Earth::DoFSM_NOM_ATTACK_WITH()
0xce0b5	160	_ZN9CNom_Path22DoFSM_NOM_JUMP_ENDPATHEv	CNom_Path::DoFSM_NOM_JUMP_ENDPATH()
0xce154	20	_ZThn228_N9CNom_Path10DoFSMLogicEv	_ZThn228_N9CNom_Path10DoFSMLogicEv
0xce169	112	_ZN9CNom_Path10DoFSMLogicEv	CNom_Path::DoFSMLogic()
0xce1d9	92	_ZN9CNom_Path14DoFSM_NOM_JUMPEv	CNom_Path::DoFSM_NOM_JUMP()
0xce235	176	_ZN9CNom_Beat16DoFSM_NOM_DAMAGEEv	CNom_Beat::DoFSM_NOM_DAMAGE()
0xce2e5	140	_ZN9CNom_Beat16DoFSM_NOM_ATTACKEv	CNom_Beat::DoFSM_NOM_ATTACK()
0xce371	178	_ZN9CNom_Beat20DoFSM_NOM_BEAT_STARTEv	CNom_Beat::DoFSM_NOM_BEAT_START()
0xce424	20	_ZThn228_N9CNom_Beat10DoFSMLogicEv	_ZThn228_N9CNom_Beat10DoFSMLogicEv
0xce439	392	_ZN9CNom_Beat10DoFSMLogicEv	CNom_Beat::DoFSMLogic()
0xce5c1	144	_ZN13CNom_Illusion16DoFSM_NOM_ATTACKEv	CNom_Illusion::DoFSM_NOM_ATTACK()
0xce651	328	_ZN12CNom_Gravity16DoFSM_NOM_ATTACKEv	CNom_Gravity::DoFSM_NOM_ATTACK()
0xce799	208	_ZN11CNom_Bounce21DoFSM_NOM_BOUNCE_STAREv	CNom_Bounce::DoFSM_NOM_BOUNCE_STAR()
0xce868	20	_ZThn228_N11CNom_Bounce10DoFSMLogicEv	_ZThn228_N11CNom_Bounce10DoFSMLogicEv
0xce87d	192	_ZN11CNom_Bounce10DoFSMLogicEv	CNom_Bounce::DoFSMLogic()
0xce93d	192	_ZN12CNom_Gravity14DoFSM_NOM_JUMPEv	CNom_Gravity::DoFSM_NOM_JUMP()
0xce9fd	232	_ZN11CNom_Bridle14DoFSM_NOM_JUMPEv	CNom_Bridle::DoFSM_NOM_JUMP()
0xceae5	148	_ZN9CNom_Beat21DoFSM_NOM_ATTACK_LONGEv	CNom_Beat::DoFSM_NOM_ATTACK_LONG()
0xceb79	226	_ZN10CNom_Earth14DoFSM_NOM_JUMPEv	CNom_Earth::DoFSM_NOM_JUMP()
0xcec5d	240	_ZN11CNom_Bridle16DoFSM_NOM_DAMAGEEv	CNom_Bridle::DoFSM_NOM_DAMAGE()
0xced4d	384	_ZN12CNom_Gravity16DoFSM_NOM_DAMAGEEv	CNom_Gravity::DoFSM_NOM_DAMAGE()
0xceecd	268	_ZN13CNom_Illusion16DoFSM_NOM_DAMAGEEv	CNom_Illusion::DoFSM_NOM_DAMAGE()
0xcefd9	208	_ZN12CNom_Gravity28DoFSM_NOM_DAMAGE_INSECTPLANTEv	CNom_Gravity::DoFSM_NOM_DAMAGE_INSECTPLANT()
0xcf0a9	46	_ZN4CNom23PushFSM_NOM_CATCH_BREAKEiiib	CNom::PushFSM_NOM_CATCH_BREAK()
0xcf0d9	136	_ZN12CNom_Shoting11ClearBulletEv	CNom_Shoting::ClearBullet()
0xcf161	58	_ZN12CNom_Shoting10DrawBulletEii	CNom_Shoting::DrawBullet()
0xcf19d	104	_ZN12CNom_Shoting12DoAfterImageEv	CNom_Shoting::DoAfterImage()
0xcf205	42	_ZN12CNom_Shoting15ClearAfterImageEv	CNom_Shoting::ClearAfterImage()
0xcf231	198	_ZN12CNom_Shoting16ActiveAfterImageEi	CNom_Shoting::ActiveAfterImage()
0xcf2f9	26	_ZN12CNom_Shoting16CreateAfterImageEv	CNom_Shoting::CreateAfterImage()
0xcf315	132	_ZN10CNom_Decal15GetTuchKeyValueE12GxPointerPos	CNom_Decal::GetTuchKeyValue()
0xcf399	18	_ZN12CNom_Shoting16InitFSM_NOM_INITEiiib	CNom_Shoting::InitFSM_NOM_INIT()
0xcf3ad	26	_ZN10CNom_Decal21InitFSM_NOM_JUMP_WALLEiiiii	CNom_Decal::InitFSM_NOM_JUMP_WALL()
0xcf3c9	50	_ZN9CNom_Gate27DoFSM_NOM_CATCH_INSECTPLANTEv	CNom_Gate::DoFSM_NOM_CATCH_INSECTPLANT()
0xcf3fd	66	_ZN12CNom_Shoting23InitFSM_NOM_CATCH_BREAKEiiib	CNom_Shoting::InitFSM_NOM_CATCH_BREAK()
0xcf441	48	_ZN9CNom_Gate20InitFSM_NOM_GATE_OUTEiiib	CNom_Gate::InitFSM_NOM_GATE_OUT()
0xcf471	42	_ZN9CNom_Gate18InitFSM_NOM_ATTACKEiiib	CNom_Gate::InitFSM_NOM_ATTACK()
0xcf49d	74	_ZN9CNom_Gate30InitFSM_NOM_DAMAGE_INSECTPLANTEiii	CNom_Gate::InitFSM_NOM_DAMAGE_INSECTPLANT()
0xcf4e9	110	_ZN9CNom_Gate18InitFSM_NOM_DAMAGEEiiib	CNom_Gate::InitFSM_NOM_DAMAGE()
0xcf559	110	_ZN10CNom_Decal18InitFSM_NOM_DAMAGEEiiib	CNom_Decal::InitFSM_NOM_DAMAGE()
0xcf5c9	56	_ZN12CNom_Shoting29InitFSM_NOM_SHOTING_BLACKHOLLEiiiii	CNom_Shoting::InitFSM_NOM_SHOTING_BLACKHOLL()
0xcf601	34	_ZN12CNom_Shoting18InitFSM_NOM_KIDNAPEiii	CNom_Shoting::InitFSM_NOM_KIDNAP()
0xcf625	300	_ZN12CNom_Shoting14DrawAfterImageEv	CNom_Shoting::DrawAfterImage()
0xcf751	92	_ZN12CNom_Shoting15InitFSM_NOM_RUNEiiib	CNom_Shoting::InitFSM_NOM_RUN()
0xcf7ad	74	_ZN9CNom_Gate28InitFSM_NOM_CHANGE_QUARDRANTEi	CNom_Gate::InitFSM_NOM_CHANGE_QUARDRANT()
0xcf7f9	812	_ZN10CNom_Decal8KeyPressEi	CNom_Decal::KeyPress()
0xcfb25	364	_ZN9CNom_Gate8KeyPressEi	CNom_Gate::KeyPress()
0xcfc91	796	_ZN10CNom_Decal4DrawEii10enumDrawOPil	CNom_Decal::Draw()
0xcffac	20	_ZThn228_N10CNom_DecalD1Ev	_ZThn228_N10CNom_DecalD1Ev
0xcffc1	40	_ZN10CNom_DecalD1Ev	CNom_Decal()
0xcffe8	20	_ZThn228_N10CNom_DecalD0Ev	_ZThn228_N10CNom_DecalD0Ev
0xcfffd	18	_ZN10CNom_DecalD0Ev	CNom_Decal()
0xd0011	40	_ZN10CNom_DecalD2Ev	CNom_Decal()
0xd0038	20	_ZThn228_N9CNom_GateD1Ev	_ZThn228_N9CNom_GateD1Ev
0xd004d	40	_ZN9CNom_GateD1Ev	CNom_Gate()
0xd0074	20	_ZThn228_N9CNom_GateD0Ev	_ZThn228_N9CNom_GateD0Ev
0xd0089	18	_ZN9CNom_GateD0Ev	CNom_Gate()
0xd009d	40	_ZN9CNom_GateD2Ev	CNom_Gate()
0xd00c5	60	_ZN10CNom_DecalC1EP7CPzxMgrS1_P4CMap	CNom_Decal()
0xd0101	60	_ZN10CNom_DecalC2EP7CPzxMgrS1_P4CMap	CNom_Decal()
0xd013d	40	_ZN9CNom_GateC1EP7CPzxMgrS1_P4CMap	CNom_Gate()
0xd0165	40	_ZN9CNom_GateC2EP7CPzxMgrS1_P4CMap	CNom_Gate()
0xd018c	20	_ZThn228_N12CNom_Shoting12InitFsmLogicEv	_ZThn228_N12CNom_Shoting12InitFsmLogicEv
0xd01a1	82	_ZN12CNom_Shoting12InitFsmLogicEv	CNom_Shoting::InitFsmLogic()
0xd01f5	144	_ZN9CNom_Gate22InitFSM_NOM_MOVE_LAYEREibiiib	CNom_Gate::InitFSM_NOM_MOVE_LAYER()
0xd0284	20	_ZThn228_N9CNom_Gate12InitFsmLogicEv	_ZThn228_N9CNom_Gate12InitFsmLogicEv
0xd0299	180	_ZN9CNom_Gate12InitFsmLogicEv	CNom_Gate::InitFsmLogic()
0xd034d	652	_ZN9CNom_Gate4DrawEii10enumDrawOPil	CNom_Gate::Draw()
0xd05d9	548	_ZN12CNom_Shoting4DrawEii10enumDrawOPil	CNom_Shoting::Draw()
0xd07fd	464	_ZN12CNom_Shoting13DoLogicBulletEv	CNom_Shoting::DoLogicBullet()
0xd09cd	32	_ZN12CNom_Shoting7DoLogicEv	CNom_Shoting::DoLogic()
0xd09ed	204	_ZN12CNom_ShotingC1EP7CPzxMgrS1_P4CMap	CNom_Shoting()
0xd0ab9	204	_ZN12CNom_ShotingC2EP7CPzxMgrS1_P4CMap	CNom_Shoting()
0xd0b85	92	_ZN7CVectorIP7CBulletE10AddElementES1_	CVector()
0xd0be1	244	_ZN12CNom_Shoting10FireBulletEv	CNom_Shoting::FireBullet()
0xd0cd5	152	_ZN12CNom_Shoting13DoFSM_NOM_RUNEv	CNom_Shoting::DoFSM_NOM_RUN()
0xd0d6d	44	_ZN7CVectorIP7CBulletED1Ev	CVector()
0xd0d99	756	_ZN12CNom_Shoting8KeyLogicEP7CObject	CNom_Shoting::KeyLogic()
0xd108d	42	_ZN4CNom15PushFSM_NOM_RUNEiiib.clone.0	CNom::PushFSM_NOM_RUN()
0xd10b9	308	_ZN9CNom_Gate20DoFSM_NOM_MOVE_LAYEREv	CNom_Gate::DoFSM_NOM_MOVE_LAYER()
0xd11ed	158	_ZN12CNom_Shoting8KeyPressEi	CNom_Shoting::KeyPress()
0xd128d	76	_ZN12CNom_ShotingD2Ev	CNom_Shoting()
0xd12d8	20	_ZThn228_N12CNom_ShotingD1Ev	_ZThn228_N12CNom_ShotingD1Ev
0xd12ed	76	_ZN12CNom_ShotingD1Ev	CNom_Shoting()
0xd1338	20	_ZThn228_N12CNom_ShotingD0Ev	_ZThn228_N12CNom_ShotingD0Ev
0xd134d	18	_ZN12CNom_ShotingD0Ev	CNom_Shoting()
0xd1361	48	_ZN7CVectorIP7CBulletED0Ev	CVector()
0xd1391	280	_ZN9CNom_Gate11DamageCatchEiihii	CNom_Gate::DamageCatch()
0xd14a9	108	_ZN12CNom_Shoting6DamageEiihb	CNom_Shoting::Damage()
0xd1515	88	_ZN9CNom_Gate26DoFSM_NOM_ATTACK_GATE_LONGEv	CNom_Gate::DoFSM_NOM_ATTACK_GATE_LONG()
0xd156c	20	_ZThn228_N9CNom_Gate10DoFSMLogicEv	_ZThn228_N9CNom_Gate10DoFSMLogicEv
0xd1581	114	_ZN9CNom_Gate10DoFSMLogicEv	CNom_Gate::DoFSMLogic()
0xd15f5	106	_ZN12CNom_Shoting21DoFSM_NOM_CATCH_BREAKEv	CNom_Shoting::DoFSM_NOM_CATCH_BREAK()
0xd1661	160	_ZN9CNom_Gate28DoFSM_NOM_DAMAGE_INSECTPLANTEv	CNom_Gate::DoFSM_NOM_DAMAGE_INSECTPLANT()
0xd1701	244	_ZN9CNom_Gate16DoFSM_NOM_ATTACKEv	CNom_Gate::DoFSM_NOM_ATTACK()
0xd17f5	240	_ZN10CNom_Decal16DoFSM_NOM_DAMAGEEv	CNom_Decal::DoFSM_NOM_DAMAGE()
0xd18e5	244	_ZN9CNom_Gate21DoFSM_NOM_CATCH_BREAKEv	CNom_Gate::DoFSM_NOM_CATCH_BREAK()
0xd19d9	324	_ZN9CNom_Gate16DoFSM_NOM_DAMAGEEv	CNom_Gate::DoFSM_NOM_DAMAGE()
0xd1b1d	552	_ZN12CNom_Shoting27DoFSM_NOM_SHOTING_BLACKHOLLEv	CNom_Shoting::DoFSM_NOM_SHOTING_BLACKHOLL()
0xd1d44	20	_ZThn228_N12CNom_Shoting10DoFSMLogicEv	_ZThn228_N12CNom_Shoting10DoFSMLogicEv
0xd1d59	62	_ZN12CNom_Shoting10DoFSMLogicEv	CNom_Shoting::DoFSMLogic()
0xd1d99	252	_ZN9CNom_Gate18DoFSM_NOM_GATE_OUTEv	CNom_Gate::DoFSM_NOM_GATE_OUT()
0xd1e95	328	_ZN12CNom_Shoting11DoPathLogicEv	CNom_Shoting::DoPathLogic()
0xd1fdd	204	_ZN6CNomUID2Ev	CNomUI()
0xd20a9	204	_ZN6CNomUID1Ev	CNomUI()
0xd2175	24	_ZN6CNomUI12SetCurMapNumEh	CNomUI::SetCurMapNum()
0xd218d	50	_ZN6CNomUI10SaveDisketEv	CNomUI::SaveDisket()
0xd21c1	32	_ZN6CNomUI12GetStageTypeEi	CNomUI::GetStageType()
0xd21e1	24	_ZN6CNomUI12InitNomPointEv	CNomUI::InitNomPoint()
0xd21f9	20	_ZN6CNomUI14SetScore_TotalEi	CNomUI::SetScore_Total()
0xd220d	14	_ZN6CNomUI14SetScore_FiverEi	CNomUI::SetScore_Fiver()
0xd221d	50	_ZN6CNomUI8AddScoreEi	CNomUI::AddScore()
0xd2251	188	_ZN6CNomUI11AddMonScoreEi	CNomUI::AddMonScore()
0xd230d	156	_ZN6CNomUI12AddItemScoreEi	CNomUI::AddItemScore()
0xd23a9	26	_ZN6CNomUI12SetCurEnergyEi	CNomUI::SetCurEnergy()
0xd23c5	186	_ZN6CNomUI13AddItemEnergyEi	CNomUI::AddItemEnergy()
0xd2481	26	_ZN6CNomUI12SetFiverModeEbb	CNomUI::SetFiverMode()
0xd249d	30	_ZN6CNomUI4InitEv	CNomUI::Init()
0xd24bd	280	_ZN6CNomUI12AddItemFiverEi	CNomUI::AddItemFiver()
0xd25d5	24	_ZN6CNomUI12InitSaveDataEv	CNomUI::InitSaveData()
0xd25ed	14	_ZN6CNomUI10SetMissCntEi	CNomUI::SetMissCnt()
0xd25fd	18	_ZN6CNomUI10AddMissCntEi	CNomUI::AddMissCnt()
0xd2611	28	_ZN6CNomUI7DoInvenEv	CNomUI::DoInven()
0xd262d	48	_ZN6CNomUI6Draw3DEii	CNomUI::Draw3D()
0xd265d	2	_ZN6CNomUI14ShowLegacyIconEv	CNomUI::ShowLegacyIcon()
0xd2661	2	_ZN6CNomUI14HideLegacyIconEv	CNomUI::HideLegacyIcon()
0xd2665	16	_ZN6CNomUI11GetSetColorEi	CNomUI::GetSetColor()
0xd2675	2	_ZN6CNomUI11ShowEatIconEv	CNomUI::ShowEatIcon()
0xd2679	2	_ZN6CNomUI11HideEatIconEv	CNomUI::HideEatIcon()
0xd267d	44	_ZN6CNomUI11ClearCurEatEv	CNomUI::ClearCurEat()
0xd26a9	10	_ZN6CNomUI11IsActiveEatEv	CNomUI::IsActiveEat()
0xd26b5	30	_ZN6CNomUI18DecreseCurEatParamEh	CNomUI::DecreseCurEatParam()
0xd26d5	24	_ZN6CNomUI15ClearLegacyDataEv	CNomUI::ClearLegacyData()
0xd26ed	72	_ZN6CNomUI13DoLogicButtonEv	CNomUI::DoLogicButton()
0xd2735	36	_ZN12CGsSingletonI6CNomUIED1Ev	CGsSingleton()
0xd2759	124	_ZN6CNomUI20DrawButton_ChallengeEii	CNomUI::DrawButton_Challenge()
0xd27d5	124	_ZN6CNomUI13DrawButton_OKEiib	CNomUI::DrawButton_OK()
0xd2851	76	_ZN6CNomUI26DrawButton_Ok_CenterBottomEv	CNomUI::DrawButton_Ok_CenterBottom()
0xd289d	64	_ZN6CNomUI25DrawButton_Ok_RightBottomEb	CNomUI::DrawButton_Ok_RightBottom()
0xd28dd	124	_ZN6CNomUI14DrawButton_ClrEiib	CNomUI::DrawButton_Clr()
0xd2959	14	_ZN6CNomUI25DrawButton_Clr_LeftBottomEb	CNomUI::DrawButton_Clr_LeftBottom()
0xd2969	20	_ZN6CNomUI17DrawButton_Clr_OkEb	CNomUI::DrawButton_Clr_Ok()
0xd297d	108	_ZN6CNomUI15DrawButton_SkipEv	CNomUI::DrawButton_Skip()
0xd29e9	168	_ZN6CNomUI19DrawButton_Game_ClrEii	CNomUI::DrawButton_Game_Clr()
0xd2a91	168	_ZN6CNomUI29IsTouchSelectButton_ChallengeE12GxPointerPosii	CNomUI::IsTouchSelectButton_Challenge()
0xd2b39	176	_ZN6CNomUI22IsTouchSelectButton_OKE12GxPointerPosiib	CNomUI::IsTouchSelectButton_OK()
0xd2be9	100	_ZN6CNomUI35IsTouchSelectBUtton_Ok_CenterBottomE12GxPointerPos	CNomUI::IsTouchSelectBUtton_Ok_CenterBottom()
0xd2c4d	112	_ZN6CNomUI34IsTouchSelectButton_Ok_RightBottomE12GxPointerPosb	CNomUI::IsTouchSelectButton_Ok_RightBottom()
0xd2cbd	180	_ZN6CNomUI23IsTouchSelectButton_ClrE12GxPointerPosiib	CNomUI::IsTouchSelectButton_Clr()
0xd2d71	60	_ZN6CNomUI34IsTouchSelectButton_Clr_LeftBottomE12GxPointerPosb	CNomUI::IsTouchSelectButton_Clr_LeftBottom()
0xd2dad	112	_ZN6CNomUI26IsTouchSelectButton_Clr_OkE12GxPointerPosRbS1_b	CNomUI::IsTouchSelectButton_Clr_Ok()
0xd2e1d	144	_ZN6CNomUI24IsTouchSelectButton_SkipE12GxPointerPos	CNomUI::IsTouchSelectButton_Skip()
0xd2ead	220	_ZN6CNomUI28IsTouchSelectButton_Game_ClrE12GxPointerPosii	CNomUI::IsTouchSelectButton_Game_Clr()
0xd2f89	64	_ZN6CNomUI15DrawNomPointNumEiii	CNomUI::DrawNomPointNum()
0xd2fc9	544	_ZN6CNomUI18DrawNomPointEffectEii	CNomUI::DrawNomPointEffect()
0xd31e9	292	_ZN6CNomUI13DrawScoreInfoEii	CNomUI::DrawScoreInfo()
0xd330d	408	_ZN6CNomUI14InitLegacyDataEv	CNomUI::InitLegacyData()
0xd34a5	26	_ZN6CNomUI11GetEatColorEi	CNomUI::GetEatColor()
0xd34c1	108	_ZN6CNomUI3EatEiii	CNomUI::Eat()
0xd352d	24	_ZN6CNomUI9DoLogic3DEv	CNomUI::DoLogic3D()
0xd3545	26	_ZN6CNomUI16DoNomPointEffectEv	CNomUI::DoNomPointEffect()
0xd3561	88	_ZN6CNomUI17DoEnergyFiverGageEv	CNomUI::DoEnergyFiverGage()
0xd35b9	856	_ZN6CNomUI9DrawInvenEii	CNomUI::DrawInven()
0xd3911	56	_ZN6CNomUI17DoFiverRateEffectEv	CNomUI::DoFiverRateEffect()
0xd3949	50	_ZN6CNomUI7DoLogicEv	CNomUI::DoLogic()
0xd397d	360	_ZN6CNomUI19DrawFiverRateEffectEii	CNomUI::DrawFiverRateEffect()
0xd3ae5	464	_ZN6CNomUI11AddMonFiverEib	CNomUI::AddMonFiver()
0xd3cb5	56	_ZN6CNomUI14SetCurStageNumEh	CNomUI::SetCurStageNum()
0xd3ced	314	_ZN6CNomUI12AddMonEnergyEi	CNomUI::AddMonEnergy()
0xd3e29	96	_ZN6CNomUI11AddNomPointEi	CNomUI::AddNomPoint()
0xd3e89	228	_ZN6CNomUI8ContinueEiiP10CPopUpBase	CNomUI::Continue()
0xd3f6d	18	_ZN6CNomUID0Ev	CNomUI()
0xd3f81	44	_ZN12CGsSingletonI6CNomUIED0Ev	CGsSingleton()
0xd3fad	1232	_ZN6CNomUIC1Ev	CNomUI()
0xd447d	1232	_ZN6CNomUIC2Ev	CNomUI()
0xd494d	1158	_ZN6CNomUI4DrawEv	CNomUI::Draw()
0xd4dd5	32	_ZN8CNomUtilC2Ev	CNomUtil()
0xd4df5	32	_ZN8CNomUtilC1Ev	CNomUtil()
0xd4e15	36	_ZN8CNomUtilD2Ev	CNomUtil()
0xd4e39	36	_ZN8CNomUtilD1Ev	CNomUtil()
0xd4e5d	60	_ZN8CNomUtil10IsInerRectEiiiiii	CNomUtil::IsInerRect()
0xd4e99	54	_ZN8CNomUtil10IsInerRectEii7TGXRECT	CNomUtil::IsInerRect()
0xd4ed1	64	_ZN8CNomUtil16IsInerRectToRectEiiiiiiii	CNomUtil::IsInerRectToRect()
0xd4f11	98	_ZN8CNomUtil10CrashCheckEP7TGXRECTS1_	CNomUtil::CrashCheck()
0xd4f75	48	_ZN8CNomUtil10CrashCheckEiiiiiiii	CNomUtil::CrashCheck()
0xd4fa5	38	_ZN8CNomUtil12FastDistanceEii	CNomUtil::FastDistance()
0xd4fcd	18	_ZN8CNomUtil4SwapEPP10CAniObjectii	CNomUtil::Swap()
0xd4fe1	146	_ZN8CNomUtil4Med3EPP10CAniObjectiiiP10Comparator	CNomUtil::Med3()
0xd5075	54	_ZN8CNomUtil7VecswapEPP10CAniObjectiii	CNomUtil::Vecswap()
0xd50ad	642	_ZN8CNomUtil5QsortEPP10CAniObjectiiiP10Comparator	CNomUtil::Qsort()
0xd5331	24	_ZN8CNomUtil11ChangeToPerEii	CNomUtil::ChangeToPer()
0xd5349	56	_ZN8CNomUtil10IsInerLineEiiii	CNomUtil::IsInerLine()
0xd5381	38	_ZN8CNomUtil8SortRectERsS0_S0_S0_	CNomUtil::SortRect()
0xd53a9	14	_ZN8CNomUtil6GetAbsEi	CNomUtil::GetAbs()
0xd53b9	34	_ZN8CNomUtil21CalculateNumberLengthEx	CNomUtil::CalculateNumberLength()
0xd53dd	48	_ZN8CNomUtil18SelfMultiplicationExi	CNomUtil::SelfMultiplication()
0xd540d	18	_ZN8CNomUtil7SurPlusExx	CNomUtil::SurPlus()
0xd5421	36	_ZN12CGsSingletonI8CNomUtilED1Ev	CGsSingleton()
0xd5445	124	_ZN8CNomUtil14IsTouchSupportEv	CNomUtil::IsTouchSupport()
0xd54c1	260	_ZN8CNomUtil10RotateRectER7TGXRECTi	CNomUtil::RotateRect()
0xd55c5	36	_ZN8CNomUtil10Distance2DEiiii	CNomUtil::Distance2D()
0xd55e9	44	_ZN8CNomUtil17TalkBoxTokenIndexEPc	CNomUtil::TalkBoxTokenIndex()
0xd5615	14	_ZN8CNomUtil9RandomIntEii	CNomUtil::RandomInt()
0xd5625	124	_ZN8CNomUtil11IsTouchRectEiiii12GxPointerPos	CNomUtil::IsTouchRect()
0xd56a1	18	_ZN8CNomUtilD0Ev	CNomUtil()
0xd56b5	44	_ZN12CGsSingletonI8CNomUtilED0Ev	CGsSingleton()
0xd56e1	4	_ZN7CObject7DoLogicEv	CObject::DoLogic()
0xd56e5	2	_ZN7CObject4DrawEii10enumDrawOPil	CObject::Draw()
0xd56e9	4	_ZN7CBullet9SetSpeedXEs	CBullet::SetSpeedX()
0xd56ed	4	_ZN7CBullet9SetSpeedYEs	CBullet::SetSpeedY()
0xd56f1	4	_ZN7CBullet10SetDamagedEb	CBullet::SetDamaged()
0xd56f5	14	_ZN7CObject11SetPositionEss	CObject::SetPosition()
0xd5705	36	_ZN7CObject6IsItemEv	CObject::IsItem()
0xd5729	44	_ZN7CBulletD2Ev	CBullet()
0xd5755	44	_ZN7CBulletD1Ev	CBullet()
0xd5781	10	_ZN7CBullet7InitPosEii	CBullet::InitPos()
0xd578d	20	_ZN7CBullet6SetDirEi	CBullet::SetDir()
0xd57a1	6	_ZN7CBullet8SetSpeedEsi	CBullet::SetSpeed()
0xd57a9	20	_ZN7CBullet12IsAttackRectEv	CBullet::IsAttackRect()
0xd57bd	120	_ZN7CBullet11CrashAttackEP7CObject	CBullet::CrashAttack()
0xd5835	100	_ZN7CBullet17CaculateCrashRectEv	CBullet::CaculateCrashRect()
0xd5899	26	_ZN7CBullet8SetDeathEv	CBullet::SetDeath()
0xd58b5	16	_ZN7CBullet15SetChangeMotionEi	CBullet::SetChangeMotion()
0xd58c5	116	_ZN7CBullet4DrawEii	CBullet::Draw()
0xd5939	126	_ZN7CBullet7DoLogicEv	CBullet::DoLogic()
0xd59b9	18	_ZN7CBulletD0Ev	CBullet()
0xd59cd	80	_ZN7CBulletC1EP7CPzxMgriP4CMap11eDrawOp_Nom	CBullet()
0xd5a1d	80	_ZN7CBulletC2EP7CPzxMgriP4CMap11eDrawOp_Nom	CBullet()
0xd5a6d	332	_ZN7CObject11CrashAttackEPS_	CObject::CrashAttack()
0xd5bb9	332	_ZN7CObject11CrashDamageEPS_	CObject::CrashDamage()
0xd5d05	584	_ZN7CObject18CalculateCrashRectEb	CObject::CalculateCrashRect()
0xd5f4d	846	_ZN7CObject11DoPathLogicEv	CObject::DoPathLogic()
0xd629d	84	_ZN7CObjectD1Ev	CObject()
0xd62f1	18	_ZN7CObjectD0Ev	CObject()
0xd6305	84	_ZN7CObjectD2Ev	CObject()
0xd6359	260	_ZN7CObjectC1EsP7CPzxMgrP4CMapS1_	CObject()
0xd645d	260	_ZN7CObjectC2EsP7CPzxMgrP4CMapS1_	CObject()
0xd6561	86	_ZN12COptionPopup6DeleteEv	COptionPopup::Delete()
0xd65b9	144	_ZN12COptionPopup17ConvertTouchPointERlS0_	COptionPopup::ConvertTouchPoint()
0xd6649	1108	_ZN12COptionPopup14EvPointerPressE12GxPointerPos	COptionPopup::EvPointerPress()
0xd6a9d	96	_ZN12COptionPopup8BackDrawEv	COptionPopup::BackDraw()
0xd6afd	1644	_ZN12COptionPopup4DrawEv	COptionPopup::Draw()
0xd7169	356	_ZN12COptionPopup6UpDateEv	COptionPopup::UpDate()
0xd72cd	1404	_ZN12COptionPopup10KeyProcessEi	COptionPopup::KeyProcess()
0xd7849	720	_ZN12COptionPopup4InitEv	COptionPopup::Init()
0xd7b19	40	_ZN12COptionPopupD1Ev	COptionPopup()
0xd7b41	18	_ZN12COptionPopupD0Ev	COptionPopup()
0xd7b55	40	_ZN12COptionPopupD2Ev	COptionPopup()
0xd7b7d	52	_ZN12COptionPopupC1EP10CPopUpBaseh	COptionPopup()
0xd7bb1	52	_ZN12COptionPopupC2EP10CPopUpBaseh	COptionPopup()
0xd7be5	12	_ZN13COutputStream12writeBooleanEb	COutputStream::writeBoolean()
0xd7bf1	12	_ZN13COutputStream9writeInt8Eh	COutputStream::writeInt8()
0xd7bfd	18	_ZN13COutputStream10writeInt16Es	COutputStream::writeInt16()
0xd7c11	32	_ZN13COutputStream10writeInt32Ei	COutputStream::writeInt32()
0xd7c31	54	_ZN13COutputStream10writeInt64Ex	COutputStream::writeInt64()
0xd7c69	4	_ZN13COutputStream4SizeEv	COutputStream::Size()
0xd7c6d	4	_ZN13COutputStream7GetDataEv	COutputStream::GetData()
0xd7c71	6	_ZN13COutputStream5ResetEv	COutputStream::Reset()
0xd7c79	24	_ZN13COutputStream9writeDataEPhi	COutputStream::writeData()
0xd7c91	68	_ZN13COutputStream11writeStringEPci	COutputStream::writeString()
0xd7cd5	44	_ZN13COutputStreamD1Ev	COutputStream()
0xd7d01	18	_ZN13COutputStreamD0Ev	COutputStream()
0xd7d15	44	_ZN13COutputStreamD2Ev	COutputStream()
0xd7d41	40	_ZN13COutputStreamC1Ei	COutputStream()
0xd7d69	40	_ZN13COutputStreamC2Ei	COutputStream()
0xd7d91	2	_ZN14CPointBuyPopup11DeletePopUpEv	CPointBuyPopup::DeletePopUp()
0xd7d94	20	_ZThn24_N14CPointBuyPopup9OnNetSendEv	_ZThn24_N14CPointBuyPopup9OnNetSendEv
0xd7da9	2	_ZN14CPointBuyPopup9OnNetSendEv	CPointBuyPopup::OnNetSend()
0xd7dad	54	_ZN14CPointBuyPopup6DeleteEv	CPointBuyPopup::Delete()
0xd7de5	38	_ZN14CPointBuyPopup20GetCenterBoundingBoxER7TGXRECTP11CGxPZxFrame	CPointBuyPopup::GetCenterBoundingBox()
0xd7e0d	144	_ZN14CPointBuyPopup17ConvertTouchPointERlS0_	CPointBuyPopup::ConvertTouchPoint()
0xd7e9d	32	_ZN17CPointBuySubPopupD1Ev	CPointBuySubPopup()
0xd7ebd	228	_ZN14CPointBuyPopup7ConnectE15EnumNetLinkType	CPointBuyPopup::Connect()
0xd7fa0	20	_ZThn24_N14CPointBuyPopup10OnNetErrorEii	_ZThn24_N14CPointBuyPopup10OnNetErrorEii
0xd7fb5	96	_ZN14CPointBuyPopup10OnNetErrorEii	CPointBuyPopup::OnNetError()
0xd8015	44	_ZN17CPointBuySubPopup11DeletePopUpEv	CPointBuySubPopup::DeletePopUp()
0xd8040	20	_ZThn24_N14CPointBuyPopup12OnNetReceiveEi	_ZThn24_N14CPointBuyPopup12OnNetReceiveEi
0xd8055	208	_ZN14CPointBuyPopup12OnNetReceiveEi	CPointBuyPopup::OnNetReceive()
0xd8125	96	_ZN14CPointBuyPopup8BackDrawEv	CPointBuyPopup::BackDraw()
0xd8185	924	_ZN14CPointBuyPopup4DrawEv	CPointBuyPopup::Draw()
0xd8521	364	_ZN14CPointBuyPopup6UpDateEv	CPointBuyPopup::UpDate()
0xd868d	420	_ZN14CPointBuyPopup14EvPointerPressE12GxPointerPos	CPointBuyPopup::EvPointerPress()
0xd8831	420	_ZN14CPointBuyPopup4InitEv	CPointBuyPopup::Init()
0xd89d5	44	_ZN14CPointBuyPopupD1Ev	CPointBuyPopup()
0xd8a01	18	_ZN14CPointBuyPopupD0Ev	CPointBuyPopup()
0xd8a15	44	_ZN14CPointBuyPopupD2Ev	CPointBuyPopup()
0xd8a41	80	_ZN14CPointBuyPopupC1EP10CPopUpBaseh	CPointBuyPopup()
0xd8a91	80	_ZN14CPointBuyPopupC2EP10CPopUpBaseh	CPointBuyPopup()
0xd8ae1	48	_ZN17CPointBuySubPopupC1EP10CPopUpBasePcS2_h	CPointBuySubPopup()
0xd8b11	384	_ZN14CPointBuyPopup10KeyProcessEi	CPointBuyPopup::KeyProcess()
0xd8c91	48	_ZN17CPointBuySubPopupC2EP10CPopUpBasePcS2_h	CPointBuySubPopup()
0xd8cc1	40	_ZN17CPointBuySubPopupD0Ev	CPointBuySubPopup()
0xd8ce9	4	_ZN10CPopUpBase10KeyProcessEi	CPopUpBase::KeyProcess()
0xd8ced	36	_ZN10CPopUpBaseD2Ev	CPopUpBase()
0xd8d11	36	_ZN10CPopUpBaseD1Ev	CPopUpBase()
0xd8d35	6	_ZN10CPopUpBase12LoadResourceEv	CPopUpBase::LoadResource()
0xd8d3d	32	_ZN10CPopUpBase7DoLogicEv	CPopUpBase::DoLogic()
0xd8d5d	52	_ZN10CPopUpBase9InitPopUpEv	CPopUpBase::InitPopUp()
0xd8d91	196	_ZN10CPopUpBase12DeleteStaticEv	CPopUpBase::DeleteStatic()
0xd8e55	6	_ZN10CPopUpBase10ClosePopUpEv	CPopUpBase::ClosePopUp()
0xd8e5d	24	_ZN10CPopUpBase16GetTotalPopUpNumEv	CPopUpBase::GetTotalPopUpNum()
0xd8e75	48	_ZN10CPopUpBase6GetTopEv	CPopUpBase::GetTop()
0xd8ea5	48	_ZN10CPopUpBase9DrawLogicEv	CPopUpBase::DrawLogic()
0xd8ed5	28	_ZN10CPopUpBase8GetPopUpEi	CPopUpBase::GetPopUp()
0xd8ef1	40	_ZN10CPopUpBase17StartPopUpProcessEv	CPopUpBase::StartPopUpProcess()
0xd8f19	48	_ZN10CPopUpBase12DrawPopUpAllEv	CPopUpBase::DrawPopUpAll()
0xd8f49	52	_ZN10CPopUpBase16DrawLastPopUpAllEv	CPopUpBase::DrawLastPopUpAll()
0xd8f7d	284	_ZN10CPopUpBase15EndPopUpProcessEv	CPopUpBase::EndPopUpProcess()
0xd9099	92	_ZN7CVectorIP10CPopUpBaseE10AddElementES1_	CVector()
0xd90f5	40	_ZN10CPopUpBase9PushPopUpEPS_	CPopUpBase::PushPopUp()
0xd911d	44	_ZN7CVectorIP10CPopUpBaseED1Ev	CVector()
0xd9149	156	_ZN10CPopUpBase10CrearPopUpEv	CPopUpBase::CrearPopUp()
0xd91e5	120	_ZN10CPopUpBaseC1Ei	CPopUpBase()
0xd925d	120	_ZN10CPopUpBaseC2Ei	CPopUpBase()
0xd92d5	18	_ZN10CPopUpBaseD0Ev	CPopUpBase()
0xd92e9	48	_ZN7CVectorIP10CPopUpBaseED0Ev	CVector()
0xd9319	14	_ZN12CGxPZxBitmap10DeleteThisEv	CGxPZxBitmap::DeleteThis()
0xd9329	38	_ZN10CGxPZxZero4DrawEii10enumDrawOPil	CGxPZxZero::Draw()
0xd9351	38	_ZN10CGxPZxZero8DrawFastEii10enumDrawOPil	CGxPZxZero::DrawFast()
0xd9379	1838	_ZN16CPzxDoubleBitmap27Draw_Normal_Flip_Add_XYClipEiiii	CPzxDoubleBitmap::Draw_Normal_Flip_Add_XYClip()
0xd9aa9	1804	_ZN16CPzxDoubleBitmap31Draw_Normal_Flip_Blend16_XYClipEiiii	CPzxDoubleBitmap::Draw_Normal_Flip_Blend16_XYClip()
0xda1b5	1156	_ZN16CPzxDoubleBitmap23Draw_Normal_Flip_XYClipEiii	CPzxDoubleBitmap::Draw_Normal_Flip_XYClip()
0xda639	1812	_ZN16CPzxDoubleBitmap23Draw_Maping_Flip_XYClipEiiiiiP10CGxPZxZero	CPzxDoubleBitmap::Draw_Maping_Flip_XYClip()
0xdad4d	1552	_ZN16CPzxDoubleBitmap21Draw_Gray_Flip_XYClipEiiii	CPzxDoubleBitmap::Draw_Gray_Flip_XYClip()
0xdb35d	1820	_ZN16CPzxDoubleBitmap22Draw_Normal_Add_XYClipEiiii	CPzxDoubleBitmap::Draw_Normal_Add_XYClip()
0xdba79	1760	_ZN16CPzxDoubleBitmap26Draw_Normal_Blend16_XYClipEiiii	CPzxDoubleBitmap::Draw_Normal_Blend16_XYClip()
0xdc159	1124	_ZN16CPzxDoubleBitmap18Draw_Normal_XYClipEiii	CPzxDoubleBitmap::Draw_Normal_XYClip()
0xdc5bd	1788	_ZN16CPzxDoubleBitmap18Draw_Maping_XYClipEiiiiiP10CGxPZxZero	CPzxDoubleBitmap::Draw_Maping_XYClip()
0xdccb9	1492	_ZN16CPzxDoubleBitmap16Draw_Gray_XYClipEiiii	CPzxDoubleBitmap::Draw_Gray_XYClip()
0xdd28d	1720	_ZN16CPzxDoubleBitmap26Draw_Normal_Flip_Add_YClipEiiii	CPzxDoubleBitmap::Draw_Normal_Flip_Add_YClip()
0xdd945	1700	_ZN16CPzxDoubleBitmap30Draw_Normal_Flip_Blend16_YClipEiiii	CPzxDoubleBitmap::Draw_Normal_Flip_Blend16_YClip()
0xddfe9	1024	_ZN16CPzxDoubleBitmap22Draw_Normal_Flip_YClipEiii	CPzxDoubleBitmap::Draw_Normal_Flip_YClip()
0xde3e9	1536	_ZN16CPzxDoubleBitmap22Draw_Maping_Flip_YClipEiiiiiP10CGxPZxZero	CPzxDoubleBitmap::Draw_Maping_Flip_YClip()
0xde9e9	1484	_ZN16CPzxDoubleBitmap20Draw_Gray_Flip_YClipEiiii	CPzxDoubleBitmap::Draw_Gray_Flip_YClip()
0xdefb5	1684	_ZN16CPzxDoubleBitmap21Draw_Normal_Add_YClipEiiii	CPzxDoubleBitmap::Draw_Normal_Add_YClip()
0xdf649	1660	_ZN16CPzxDoubleBitmap25Draw_Normal_Blend16_YClipEiiii	CPzxDoubleBitmap::Draw_Normal_Blend16_YClip()
0xdfcc5	1016	_ZN16CPzxDoubleBitmap17Draw_Normal_YClipEiii	CPzxDoubleBitmap::Draw_Normal_YClip()
0xe00bd	1520	_ZN16CPzxDoubleBitmap17Draw_Maping_YClipEiiiiiP10CGxPZxZero	CPzxDoubleBitmap::Draw_Maping_YClip()
0xe06ad	1468	_ZN16CPzxDoubleBitmap15Draw_Gray_YClipEiiii	CPzxDoubleBitmap::Draw_Gray_YClip()
0xe0c69	1676	_ZN16CPzxDoubleBitmap26Draw_Normal_Flip_Add_XClipEiiii	CPzxDoubleBitmap::Draw_Normal_Flip_Add_XClip()
0xe12f5	1664	_ZN16CPzxDoubleBitmap30Draw_Normal_Flip_Blend16_XClipEiiii	CPzxDoubleBitmap::Draw_Normal_Flip_Blend16_XClip()
0xe1975	1004	_ZN16CPzxDoubleBitmap22Draw_Normal_Flip_XClipEiii	CPzxDoubleBitmap::Draw_Normal_Flip_XClip()
0xe1d61	1440	_ZN16CPzxDoubleBitmap22Draw_Maping_Flip_XClipEiiiiiP10CGxPZxZero	CPzxDoubleBitmap::Draw_Maping_Flip_XClip()
0xe2301	1364	_ZN16CPzxDoubleBitmap20Draw_Gray_Flip_XClipEiiii	CPzxDoubleBitmap::Draw_Gray_Flip_XClip()
0xe2855	1652	_ZN16CPzxDoubleBitmap21Draw_Normal_Add_XClipEiiii	CPzxDoubleBitmap::Draw_Normal_Add_XClip()
0xe2ec9	1620	_ZN16CPzxDoubleBitmap25Draw_Normal_Blend16_XClipEiiii	CPzxDoubleBitmap::Draw_Normal_Blend16_XClip()
0xe351d	988	_ZN16CPzxDoubleBitmap17Draw_Normal_XClipEiii	CPzxDoubleBitmap::Draw_Normal_XClip()
0xe38f9	1408	_ZN16CPzxDoubleBitmap17Draw_Maping_XClipEiiiiiP10CGxPZxZero	CPzxDoubleBitmap::Draw_Maping_XClip()
0xe3e79	1356	_ZN16CPzxDoubleBitmap15Draw_Gray_XClipEiiii	CPzxDoubleBitmap::Draw_Gray_XClip()
0xe43c5	1504	_ZN16CPzxDoubleBitmap25Draw_Normal_Flip_Add_FastEiiii	CPzxDoubleBitmap::Draw_Normal_Flip_Add_Fast()
0xe49a5	1536	_ZN16CPzxDoubleBitmap29Draw_Normal_Flip_Blend16_FastEiiii	CPzxDoubleBitmap::Draw_Normal_Flip_Blend16_Fast()
0xe4fa5	756	_ZN16CPzxDoubleBitmap21Draw_Normal_Flip_FastEiii	CPzxDoubleBitmap::Draw_Normal_Flip_Fast()
0xe5299	1268	_ZN16CPzxDoubleBitmap21Draw_Maping_Flip_FastEiiiiiP10CGxPZxZero	CPzxDoubleBitmap::Draw_Maping_Flip_Fast()
0xe578d	1224	_ZN16CPzxDoubleBitmap19Draw_Gray_Flip_FastEiiii	CPzxDoubleBitmap::Draw_Gray_Flip_Fast()
0xe5c55	1484	_ZN16CPzxDoubleBitmap20Draw_Normal_Add_FastEiiii	CPzxDoubleBitmap::Draw_Normal_Add_Fast()
0xe6221	1492	_ZN16CPzxDoubleBitmap24Draw_Normal_Blend16_FastEiiii	CPzxDoubleBitmap::Draw_Normal_Blend16_Fast()
0xe67f5	736	_ZN16CPzxDoubleBitmap16Draw_Normal_FastEiii	CPzxDoubleBitmap::Draw_Normal_Fast()
0xe6ad5	1240	_ZN16CPzxDoubleBitmap16Draw_Maping_FastEiiiiiP10CGxPZxZero	CPzxDoubleBitmap::Draw_Maping_Fast()
0xe6fad	1208	_ZN16CPzxDoubleBitmap14Draw_Gray_FastEiiii	CPzxDoubleBitmap::Draw_Gray_Fast()
0xe7465	40	_ZN16CPzxDoubleBitmapC1Ev	CPzxDoubleBitmap()
0xe748d	40	_ZN16CPzxDoubleBitmapC2Ev	CPzxDoubleBitmap()
0xe74b5	80	_ZN10CGxPZxZero7BltFastEiiiiii10enumDrawOPil	CGxPZxZero::BltFast()
0xe7505	80	_ZN10CGxPZxZero3BltEiiiiii10enumDrawOPil	CGxPZxZero::Blt()
0xe7554	20	_ZThn16_N16CPzxDoubleBitmapD1Ev	_ZThn16_N16CPzxDoubleBitmapD1Ev
0xe7569	40	_ZN16CPzxDoubleBitmapD1Ev	CPzxDoubleBitmap()
0xe7590	20	_ZThn16_N16CPzxDoubleBitmapD0Ev	_ZThn16_N16CPzxDoubleBitmapD0Ev
0xe75a5	44	_ZN16CPzxDoubleBitmapD0Ev	CPzxDoubleBitmap()
0xe75d1	360	_ZN17CPzxFillterBitmap11DrawFillterEii	CPzxFillterBitmap::DrawFillter()
0xe7739	10	_ZN17CPzxFillterBitmap4DrawEii10enumDrawOPil	CPzxFillterBitmap::Draw()
0xe7745	276	_ZN17CPzxFillterBitmap23MakeFilter_FishEye_LenzEi	CPzxFillterBitmap::MakeFilter_FishEye_Lenz()
0xe7859	288	_ZN17CPzxFillterBitmap23MakeFilter_Twister_LenzEi	CPzxFillterBitmap::MakeFilter_Twister_Lenz()
0xe7979	40	_ZN17CPzxFillterBitmapC1Ev	CPzxFillterBitmap()
0xe79a1	40	_ZN17CPzxFillterBitmapC2Ev	CPzxFillterBitmap()
0xe79c8	20	_ZThn16_N17CPzxFillterBitmapD1Ev	_ZThn16_N17CPzxFillterBitmapD1Ev
0xe79dd	40	_ZN17CPzxFillterBitmapD1Ev	CPzxFillterBitmap()
0xe7a04	20	_ZThn16_N17CPzxFillterBitmapD0Ev	_ZThn16_N17CPzxFillterBitmapD0Ev
0xe7a19	44	_ZN17CPzxFillterBitmapD0Ev	CPzxFillterBitmap()
0xe7a45	32	_ZN7CPzxMgrC2Ev	CPzxMgr()
0xe7a65	32	_ZN7CPzxMgrC1Ev	CPzxMgr()
0xe7a85	24	_ZN7CPzxMgr18GetTotalFrameCountEv	CPzxMgr::GetTotalFrameCount()
0xe7a9d	24	_ZN7CPzxMgr8GetFrameEi	CPzxMgr::GetFrame()
0xe7ab5	236	_ZN7CPzxMgr21HookUncompressImageCBEP12CGxPZxBitmapPS_	CPzxMgr::HookUncompressImageCB()
0xe7ba1	432	_ZN7CPzxMgr17HookSingleImageCBEP12CGxPZxBitmapPS_	CPzxMgr::HookSingleImageCB()
0xe7d51	124	_ZN7CPzxMgr17HookDoubleImageCBEP12CGxPZxBitmapPS_	CPzxMgr::HookDoubleImageCB()
0xe7dcd	14	_ZN7CPzxMgr13ChangePaletteEi	CPzxMgr::ChangePalette()
0xe7ddd	104	_ZN7CPzxMgr13CreateAniClipEi	CPzxMgr::CreateAniClip()
0xe7e45	676	_ZN7CPzxMgr11LoadPzxPartEPKc10tagPZxTypePh12ePzxPartKindi17ePzxConverImgKind	CPzxMgr::LoadPzxPart()
0xe80e9	704	_ZN7CPzxMgr10LoadPzxPalEPKcbbbi17ePzxConverImgKindb	CPzxMgr::LoadPzxPal()
0xe83a9	564	_ZN7CPzxMgr7LoadPzxEPKcbbi17ePzxConverImgKindb	CPzxMgr::LoadPzx()
0xe85dd	156	_ZN7CPzxMgrD1Ev	CPzxMgr()
0xe8679	18	_ZN7CPzxMgrD0Ev	CPzxMgr()
0xe868d	156	_ZN7CPzxMgrD2Ev	CPzxMgr()
0xe8729	6	_ZN16CPzxSingleBitmap8GetPixelEii	CPzxSingleBitmap::GetPixel()
0xe8731	2060	_ZN16CPzxSingleBitmap26Draw_Enlarge_Flip_Add_ClipEiiiii	CPzxSingleBitmap::Draw_Enlarge_Flip_Add_Clip()
0xe8f3d	1854	_ZN16CPzxSingleBitmap26Draw_Enlarge_Flip_Add_FastEiiiii	CPzxSingleBitmap::Draw_Enlarge_Flip_Add_Fast()
0xe967d	2148	_ZN16CPzxSingleBitmap30Draw_Enlarge_Flip_Blend16_ClipEiiiii	CPzxSingleBitmap::Draw_Enlarge_Flip_Blend16_Clip()
0xe9ee1	1872	_ZN16CPzxSingleBitmap30Draw_Enlarge_Flip_Blend16_FastEiiiii	CPzxSingleBitmap::Draw_Enlarge_Flip_Blend16_Fast()
0xea631	1104	_ZN16CPzxSingleBitmap22Draw_Enlarge_Flip_ClipEiiii	CPzxSingleBitmap::Draw_Enlarge_Flip_Clip()
0xeaa81	844	_ZN16CPzxSingleBitmap22Draw_Enlarge_Flip_FastEiiii	CPzxSingleBitmap::Draw_Enlarge_Flip_Fast()
0xeadcd	2024	_ZN16CPzxSingleBitmap21Draw_Enlarge_Add_ClipEiiiii	CPzxSingleBitmap::Draw_Enlarge_Add_Clip()
0xeb5b5	1814	_ZN16CPzxSingleBitmap21Draw_Enlarge_Add_FastEiiiii	CPzxSingleBitmap::Draw_Enlarge_Add_Fast()
0xebccd	2104	_ZN16CPzxSingleBitmap25Draw_Enlarge_Blend16_ClipEiiiii	CPzxSingleBitmap::Draw_Enlarge_Blend16_Clip()
0xec505	852	_ZN16CPzxSingleBitmap25Draw_Enlarge_Blend16_FastEiiiii	CPzxSingleBitmap::Draw_Enlarge_Blend16_Fast()
0xec859	1054	_ZN16CPzxSingleBitmap17Draw_Enlarge_ClipEiiii	CPzxSingleBitmap::Draw_Enlarge_Clip()
0xecc79	816	_ZN16CPzxSingleBitmap17Draw_Enlarge_FastEiiii	CPzxSingleBitmap::Draw_Enlarge_Fast()
0xecfa9	1786	_ZN16CPzxSingleBitmap25Draw_Normal_Flip_Add_ClipEiiii	CPzxSingleBitmap::Draw_Normal_Flip_Add_Clip()
0xed6a5	1824	_ZN16CPzxSingleBitmap29Draw_Normal_Flip_Blend16_ClipEiiii	CPzxSingleBitmap::Draw_Normal_Flip_Blend16_Clip()
0xeddc5	1008	_ZN16CPzxSingleBitmap21Draw_Normal_Flip_ClipEiii	CPzxSingleBitmap::Draw_Normal_Flip_Clip()
0xee1b5	1768	_ZN16CPzxSingleBitmap20Draw_Normal_Add_ClipEiiii	CPzxSingleBitmap::Draw_Normal_Add_Clip()
0xee89d	1754	_ZN16CPzxSingleBitmap24Draw_Normal_Blend16_ClipEiiii	CPzxSingleBitmap::Draw_Normal_Blend16_Clip()
0xeef79	972	_ZN16CPzxSingleBitmap16Draw_Normal_ClipEiii	CPzxSingleBitmap::Draw_Normal_Clip()
0xef345	1328	_ZN16CPzxSingleBitmap14Draw_Gray_ClipEiiii	CPzxSingleBitmap::Draw_Gray_Clip()
0xef875	1468	_ZN16CPzxSingleBitmap25Draw_Normal_Flip_Add_FastEiiii	CPzxSingleBitmap::Draw_Normal_Flip_Add_Fast()
0xefe31	1508	_ZN16CPzxSingleBitmap29Draw_Normal_Flip_Blend16_FastEiiii	CPzxSingleBitmap::Draw_Normal_Flip_Blend16_Fast()
0xf0415	636	_ZN16CPzxSingleBitmap21Draw_Normal_Flip_FastEiii	CPzxSingleBitmap::Draw_Normal_Flip_Fast()
0xf0691	1456	_ZN16CPzxSingleBitmap20Draw_Normal_Add_FastEiiii	CPzxSingleBitmap::Draw_Normal_Add_Fast()
0xf0c41	1472	_ZN16CPzxSingleBitmap24Draw_Normal_Blend16_FastEiiii	CPzxSingleBitmap::Draw_Normal_Blend16_Fast()
0xf1201	616	_ZN16CPzxSingleBitmap16Draw_Normal_FastEiii	CPzxSingleBitmap::Draw_Normal_Fast()
0xf1469	886	_ZN16CPzxSingleBitmap14Draw_Gray_FastEiiii	CPzxSingleBitmap::Draw_Gray_Fast()
0xf17e1	40	_ZN16CPzxSingleBitmapC1Ev	CPzxSingleBitmap()
0xf1809	40	_ZN16CPzxSingleBitmapC2Ev	CPzxSingleBitmap()
0xf1830	20	_ZThn16_N16CPzxSingleBitmapD1Ev	_ZThn16_N16CPzxSingleBitmapD1Ev
0xf1845	40	_ZN16CPzxSingleBitmapD1Ev	CPzxSingleBitmap()
0xf186c	20	_ZThn16_N16CPzxSingleBitmapD0Ev	_ZThn16_N16CPzxSingleBitmapD0Ev
0xf1881	44	_ZN16CPzxSingleBitmapD0Ev	CPzxSingleBitmap()
0xf18ad	6166	_ZN20CPzxUncompressBitmap4DrawEiiiibbbiiii	CPzxUncompressBitmap::Draw()
0xf30c5	40	_ZN20CPzxUncompressBitmapC1Ev	CPzxUncompressBitmap()
0xf30ed	40	_ZN20CPzxUncompressBitmapC2Ev	CPzxUncompressBitmap()
0xf3114	20	_ZThn16_N20CPzxUncompressBitmapD1Ev	_ZThn16_N20CPzxUncompressBitmapD1Ev
0xf3129	40	_ZN20CPzxUncompressBitmapD1Ev	CPzxUncompressBitmap()
0xf3150	20	_ZThn16_N20CPzxUncompressBitmapD0Ev	_ZThn16_N20CPzxUncompressBitmapD0Ev
0xf3165	44	_ZN20CPzxUncompressBitmapD0Ev	CPzxUncompressBitmap()
0xf3191	36	_ZN10CQRDrawMgrD1Ev	CQRDrawMgr()
0xf31b5	108	_ZN10CQRDrawMgr12TransPostionERiS0_i	CQRDrawMgr::TransPostion()
0xf3221	70	_ZN10CQRDrawMgr9TransRectERiS0_S0_S0_i	CQRDrawMgr::TransRect()
0xf3269	124	_ZN10CQRDrawMgr18TransUpDownPostionERiS0_S0_	CQRDrawMgr::TransUpDownPostion()
0xf32e5	120	_ZN10CQRDrawMgr8RGBBlendEiiiiii	CQRDrawMgr::RGBBlend()
0xf335d	20	_ZN10CQRDrawMgr15SetMapingPzxMgrEP7CPzxMgri	CQRDrawMgr::SetMapingPzxMgr()
0xf3371	36	_ZN12CGsSingletonI10CQRDrawMgrED1Ev	CGsSingleton()
0xf3395	336	_ZN10CQRDrawMgr14DrawMapingRectEiiii	CQRDrawMgr::DrawMapingRect()
0xf34e5	792	_ZN10CQRDrawMgr23DrawCuttingScreenBufferEli	CQRDrawMgr::DrawCuttingScreenBuffer()
0xf37fd	176	_ZN10CQRDrawMgr14SetMapingFrameEi	CQRDrawMgr::SetMapingFrame()
0xf38ad	96	_ZN10CQRDrawMgr19DrawUncompressImageEP20CPzxUncompressBitmapiiii11eDrawOp_Nomiiii	CQRDrawMgr::DrawUncompressImage()
0xf390d	190	_ZN10CQRDrawMgr15Draw_UncompressEP13tagSubFrameExii11eDrawOp_Nomiiii	CQRDrawMgr::Draw_Uncompress()
0xf39cd	1854	_ZN10CQRDrawMgr15DrawDoubleImageEP16CPzxDoubleBitmapiiii11eDrawOp_Nomiiii	CQRDrawMgr::DrawDoubleImage()
0xf410d	1608	_ZN10CQRDrawMgr15DrawSingleImageEP16CPzxSingleBitmapiiii11eDrawOp_Nomiiii	CQRDrawMgr::DrawSingleImage()
0xf4755	226	_ZN10CQRDrawMgr11Draw_SingleEP13tagSubFrameExii11eDrawOp_Nomiiii	CQRDrawMgr::Draw_Single()
0xf4839	2436	_ZN10CQRDrawMgr11DrawNzImageEP10CGxPZxZeroiiii11eDrawOp_Nomiii	CQRDrawMgr::DrawNzImage()
0xf51bd	146	_ZN10CQRDrawMgr9Draw_NoneEP13tagSubFrameExii11eDrawOp_Nomiii	CQRDrawMgr::Draw_None()
0xf5251	316	_ZN10CQRDrawMgr11Draw_DoubleEP13tagSubFrameExii11eDrawOp_Nomiiii	CQRDrawMgr::Draw_Double()
0xf538d	280	_ZN10CQRDrawMgr11DrawN4FrameEP11CGxPZxFrameii17ePzxConverImgKind11eDrawOp_Nomiiiiii	CQRDrawMgr::DrawN4Frame()
0xf54a5	1238	_ZN10CQRDrawMgr13DrawImgNumberEP9CGxPZxAniiiiiii17ePzxConverImgKind11eDrawOp_Nomii	CQRDrawMgr::DrawImgNumber()
0xf597d	84	_ZN10CQRDrawMgr9DrawN4AniEP9CGxPZxAniii17ePzxConverImgKind11eDrawOp_Nomiiiii	CQRDrawMgr::DrawN4Ani()
0xf59d1	28	_ZN10CQRDrawMgr13ReSetFontClipEv	CQRDrawMgr::ReSetFontClip()
0xf59ed	80	_ZN10CQRDrawMgr11SetFontClipEiiii	CQRDrawMgr::SetFontClip()
0xf5a3d	100	_ZN10CQRDrawMgr13DrawMulStringEPciiiijb	CQRDrawMgr::DrawMulString()
0xf5aa1	76	_ZN10CQRDrawMgr10DrawStringEPciiijb	CQRDrawMgr::DrawString()
0xf5aed	100	_ZN10CQRDrawMgr16DrawOutLineShadeEiiiijbb	CQRDrawMgr::DrawOutLineShade()
0xf5b51	128	_ZN10CQRDrawMgr15DrawFillPolygonEPiS0_ij	CQRDrawMgr::DrawFillPolygon()
0xf5bd1	128	_ZN10CQRDrawMgr11DrawPolygonEPiS0_ij	CQRDrawMgr::DrawPolygon()
0xf5c51	116	_ZN10CQRDrawMgr15DrawFillEllipseEiiiijii	CQRDrawMgr::DrawFillEllipse()
0xf5cc5	92	_ZN10CQRDrawMgr11DrawEllipseEiiiijii	CQRDrawMgr::DrawEllipse()
0xf5d21	88	_ZN10CQRDrawMgr17DrawFillRoundRectEiiiiij	CQRDrawMgr::DrawFillRoundRect()
0xf5d79	88	_ZN10CQRDrawMgr13DrawRoundRectEiiiiij	CQRDrawMgr::DrawRoundRect()
0xf5dd1	160	_ZN10CQRDrawMgr12DrawFillRectEiiiijb	CQRDrawMgr::DrawFillRect()
0xf5e71	84	_ZN10CQRDrawMgr8DrawRectEiiiij	CQRDrawMgr::DrawRect()
0xf5ec5	28	_ZN10CQRDrawMgr15ResetClipRectExEv	CQRDrawMgr::ResetClipRectEx()
0xf5ee1	40	_ZN10CQRDrawMgr12ResetRectAllEv	CQRDrawMgr::ResetRectAll()
0xf5f09	28	_ZN10CQRDrawMgr19ResetClipRectNativeEv	CQRDrawMgr::ResetClipRectNative()
0xf5f25	160	_ZN10CQRDrawMgr10ClipRectExEiiii	CQRDrawMgr::ClipRectEx()
0xf5fc5	200	_ZN10CQRDrawMgr11ClipRectAllEiiii	CQRDrawMgr::ClipRectAll()
0xf608d	148	_ZN10CQRDrawMgr14ClipRectNativeEiiii	CQRDrawMgr::ClipRectNative()
0xf6121	76	_ZN10CQRDrawMgr8DrawLineEiiiij	CQRDrawMgr::DrawLine()
0xf616d	56	_ZN10CQRDrawMgr8PutPixelEiij	CQRDrawMgr::PutPixel()
0xf61a5	76	_ZN10CQRDrawMgrC1Ev	CQRDrawMgr()
0xf61f1	76	_ZN10CQRDrawMgrC2Ev	CQRDrawMgr()
0xf623d	44	_ZN10CQRDrawMgrD0Ev	CQRDrawMgr()
0xf6269	44	_ZN12CGsSingletonI10CQRDrawMgrED0Ev	CGsSingleton()
0xf6295	1158	_ZN10CQRDrawMgr25DrawPzxFrameForGradiationEiiP11CGxPZxFramei	CQRDrawMgr::DrawPzxFrameForGradiation()
0xf671c	20	_ZThn24_N13CRankingPopup9OnNetSendEv	_ZThn24_N13CRankingPopup9OnNetSendEv
0xf6731	2	_ZN13CRankingPopup9OnNetSendEv	CRankingPopup::OnNetSend()
0xf6735	74	_ZN13CRankingPopup6DeleteEv	CRankingPopup::Delete()
0xf6781	26	_ZN13CRankingPopup16KeyProcessCommonEi	CRankingPopup::KeyProcessCommon()
0xf679d	148	_ZN13CRankingPopup21KeyProcessRankingInfoEi	CRankingPopup::KeyProcessRankingInfo()
0xf6831	44	_ZN13CRankingPopup17KeyProcessRankingEi	CRankingPopup::KeyProcessRanking()
0xf685d	6	_ZN13CRankingPopup25EvPointerPressRankingInfoE12GxPointerPos	CRankingPopup::EvPointerPressRankingInfo()
0xf6865	6	_ZN13CRankingPopup21EvPointerPressRankingE12GxPointerPos	CRankingPopup::EvPointerPressRanking()
0xf686d	38	_ZN13CRankingPopup20GetCenterBoundingBoxER7TGXRECTP11CGxPZxFrame	CRankingPopup::GetCenterBoundingBox()
0xf6895	176	_ZN13CRankingPopup17ConvertTouchPointERlS0_	CRankingPopup::ConvertTouchPoint()
0xf6945	32	_ZN19CRankingRegSubPopupD1Ev	CRankingRegSubPopup()
0xf6965	148	_ZN13CRankingPopup23ConvertTouchPointOemIMEERlS0_	CRankingPopup::ConvertTouchPointOemIME()
0xf69f9	80	_ZN13CRankingPopup10DrawOemIMEEv	CRankingPopup::DrawOemIME()
0xf6a49	122	_ZN13CRankingPopup22EvPointerPressRegisterE12GxPointerPos	CRankingPopup::EvPointerPressRegister()
0xf6ac5	66	_ZN13CRankingPopup25EvPointerPressInGroupModeE12GxPointerPos	CRankingPopup::EvPointerPressInGroupMode()
0xf6b09	66	_ZN13CRankingPopup23EvPointerPressGroupModeE12GxPointerPos	CRankingPopup::EvPointerPressGroupMode()
0xf6b4d	66	_ZN13CRankingPopup23EvPointerPressTotalModeE12GxPointerPos	CRankingPopup::EvPointerPressTotalMode()
0xf6b91	592	_ZN13CRankingPopup22DrawInGroupRankingInfoEv	CRankingPopup::DrawInGroupRankingInfo()
0xf6de1	540	_ZN13CRankingPopup20DrawGroupRankingInfoEv	CRankingPopup::DrawGroupRankingInfo()
0xf6ffd	592	_ZN13CRankingPopup20DrawTotalRankingInfoEv	CRankingPopup::DrawTotalRankingInfo()
0xf724d	172	_ZN13CRankingPopup7ConnectEv	CRankingPopup::Connect()
0xf72f9	36	_ZN19CRankingRegSubPopup11DeletePopUpEv	CRankingRegSubPopup::DeletePopUp()
0xf731c	20	_ZThn24_N13CRankingPopup10OnNetErrorEii	_ZThn24_N13CRankingPopup10OnNetErrorEii
0xf7331	84	_ZN13CRankingPopup10OnNetErrorEii	CRankingPopup::OnNetError()
0xf7385	328	_ZN13CRankingPopup12UpdateCommonEv	CRankingPopup::UpdateCommon()
0xf74cc	20	_ZThn24_N13CRankingPopup12OnNetReceiveEi	_ZThn24_N13CRankingPopup12OnNetReceiveEi
0xf74e1	444	_ZN13CRankingPopup12OnNetReceiveEi	CRankingPopup::OnNetReceive()
0xf769d	288	_ZN13CRankingPopup16DrawRankingPopupEv	CRankingPopup::DrawRankingPopup()
0xf77bd	760	_ZN13CRankingPopup20DrawRankingInfoPopupEv	CRankingPopup::DrawRankingInfoPopup()
0xf7ab5	1334	_ZN13CRankingPopup17DrawRegisterPopupEv	CRankingPopup::DrawRegisterPopup()
0xf7fed	36	_ZN13CRankingPopup15DrawInGroupModeEv	CRankingPopup::DrawInGroupMode()
0xf8011	36	_ZN13CRankingPopup13DrawGroupModeEv	CRankingPopup::DrawGroupMode()
0xf8035	36	_ZN13CRankingPopup13DrawTotalModeEv	CRankingPopup::DrawTotalMode()
0xf8059	10	_ZN13CRankingPopup17UpdateInGroupModeEv	CRankingPopup::UpdateInGroupMode()
0xf8065	10	_ZN13CRankingPopup15UpdateGroupModeEv	CRankingPopup::UpdateGroupMode()
0xf8071	10	_ZN13CRankingPopup15UpdateTotalModeEv	CRankingPopup::UpdateTotalMode()
0xf807d	48	_ZN13CRankingPopup6UpDateEv	CRankingPopup::UpDate()
0xf80ad	288	_ZN13CRankingPopup20EvPointerPressCommonE12GxPointerPos	CRankingPopup::EvPointerPressCommon()
0xf81cd	94	_ZN13CRankingPopup14EvPointerPressE12GxPointerPos	CRankingPopup::EvPointerPress()
0xf822d	96	_ZN13CRankingPopup10DrawCommonEv	CRankingPopup::DrawCommon()
0xf828d	74	_ZN13CRankingPopup4DrawEv	CRankingPopup::Draw()
0xf82d9	96	_ZN13CRankingPopup8BackDrawEv	CRankingPopup::BackDraw()
0xf8339	712	_ZN13CRankingPopup4InitEv	CRankingPopup::Init()
0xf8601	44	_ZN13CRankingPopupD1Ev	CRankingPopup()
0xf862d	18	_ZN13CRankingPopupD0Ev	CRankingPopup()
0xf8641	44	_ZN13CRankingPopupD2Ev	CRankingPopup()
0xf866d	100	_ZN13CRankingPopupC1EP10CPopUpBasehh	CRankingPopup()
0xf86d1	100	_ZN13CRankingPopupC2EP10CPopUpBasehh	CRankingPopup()
0xf8735	48	_ZN19CRankingRegSubPopupC1EP10CPopUpBasePcS2_b	CRankingRegSubPopup()
0xf8765	1264	_ZN13CRankingPopup18KeyProcessRegisterEi	CRankingPopup::KeyProcessRegister()
0xf8c55	42	_ZN13CRankingPopup21KeyProcessInGroupModeEi	CRankingPopup::KeyProcessInGroupMode()
0xf8c81	42	_ZN13CRankingPopup19KeyProcessGroupModeEi	CRankingPopup::KeyProcessGroupMode()
0xf8cad	42	_ZN13CRankingPopup19KeyProcessTotalModeEi	CRankingPopup::KeyProcessTotalMode()
0xf8cd9	64	_ZN13CRankingPopup10KeyProcessEi	CRankingPopup::KeyProcess()
0xf8d19	48	_ZN19CRankingRegSubPopupC2EP10CPopUpBasePcS2_b	CRankingRegSubPopup()
0xf8d49	40	_ZN19CRankingRegSubPopupD0Ev	CRankingRegSubPopup()
0xf8d71	232	_ZN11CReadyPopup6DeleteEv	CReadyPopup::Delete()
0xf8e59	14	_ZN11CReadyPopup8SetStartEv	CReadyPopup::SetStart()
0xf8e69	52	_ZN13CMissionPopUp11DeletePopUpEv	CMissionPopUp::DeletePopUp()
0xf8e9d	144	_ZN11CReadyPopup17ConvertTouchPointERlS0_	CReadyPopup::ConvertTouchPoint()
0xf8f2d	70	_ZN11CReadyPopup14GetFigureLevelEi	CReadyPopup::GetFigureLevel()
0xf8f75	32	_ZN13CMissionPopUpD1Ev	CMissionPopUp()
0xf8f95	32	_ZN14CReadySubPopupD1Ev	CReadySubPopup()
0xf8fb5	88	_ZN11CReadyPopup18SetFigurePartFrameEv	CReadyPopup::SetFigurePartFrame()
0xf900d	48	_ZN11CReadyPopup11GetNomPointEv	CReadyPopup::GetNomPoint()
0xf903d	384	_ZN11CReadyPopup14EvPointerPressE12GxPointerPos	CReadyPopup::EvPointerPress()
0xf91bd	80	_ZN11CReadyPopup8BackDrawEv	CReadyPopup::BackDraw()
0xf920d	2008	_ZN11CReadyPopup4DrawEv	CReadyPopup::Draw()
0xf99e5	800	_ZN11CReadyPopup6UpDateEv	CReadyPopup::UpDate()
0xf9d05	700	_ZN11CReadyPopup4InitEv	CReadyPopup::Init()
0xf9fc1	40	_ZN11CReadyPopupD1Ev	CReadyPopup()
0xf9fe9	18	_ZN11CReadyPopupD0Ev	CReadyPopup()
0xf9ffd	40	_ZN11CReadyPopupD2Ev	CReadyPopup()
0xfa025	92	_ZN11CReadyPopupC1Ebih	CReadyPopup()
0xfa081	92	_ZN11CReadyPopupC2Ebih	CReadyPopup()
0xfa0dd	48	_ZN14CReadySubPopup11DeletePopUpEv	CReadySubPopup::DeletePopUp()
0xfa10d	48	_ZN14CReadySubPopupC1EP10CPopUpBasePcS2_h	CReadySubPopup()
0xfa13d	48	_ZN14CReadySubPopupC2EP10CPopUpBasePcS2_h	CReadySubPopup()
0xfa16d	44	_ZN13CMissionPopUpC1EP10CPopUpBasePcS2_	CMissionPopUp()
0xfa199	708	_ZN11CReadyPopup10KeyProcessEi	CReadyPopup::KeyProcess()
0xfa45d	44	_ZN13CMissionPopUpC2EP10CPopUpBasePcS2_	CMissionPopUp()
0xfa489	220	_ZN13CMissionPopUp8DrawBodyEv	CMissionPopUp::DrawBody()
0xfa565	40	_ZN13CMissionPopUpD0Ev	CMissionPopUp()
0xfa58d	40	_ZN14CReadySubPopupD0Ev	CReadySubPopup()
0xfa5b5	140	_ZN17CResultBonusPopUp6DeleteEv	CResultBonusPopUp::Delete()
0xfa641	54	_ZN12CResultPopUp6DeleteEv	CResultPopUp::Delete()
0xfa679	68	_ZN12CResultPopUp14EvPointerPressE12GxPointerPos	CResultPopUp::EvPointerPress()
0xfa6bd	86	_ZN12CResultPopUp10KeyProcessEi	CResultPopUp::KeyProcess()
0xfa715	100	_ZN12CResultPopUp20GetCenterBoundingBoxEP11CGxPZxFramehi	CResultPopUp::GetCenterBoundingBox()
0xfa779	40	_ZN12CResultPopUp7GetRankEv	CResultPopUp::GetRank()
0xfa7a1	1094	_ZN12CResultPopUp14DrawResultBodyEv	CResultPopUp::DrawResultBody()
0xfabe9	60	_ZN12CResultPopUp8BackDrawEv	CResultPopUp::BackDraw()
0xfac25	68	_ZN17CResultBonusPopUp8BackDrawEv	CResultBonusPopUp::BackDraw()
0xfac69	144	_ZN12CResultPopUp4DrawEv	CResultPopUp::Draw()
0xfacf9	128	_ZN12CResultPopUp4InitEv	CResultPopUp::Init()
0xfad79	56	_ZN12CResultPopUpD1Ev	CResultPopUp()
0xfadb1	18	_ZN12CResultPopUpD0Ev	CResultPopUp()
0xfadc5	56	_ZN12CResultPopUpD2Ev	CResultPopUp()
0xfadfd	528	_ZN12CResultPopUpC1EP12CScriptPopUp	CResultPopUp()
0xfb00d	528	_ZN12CResultPopUpC2EP12CScriptPopUp	CResultPopUp()
0xfb21d	212	_ZN17CResultBonusPopUp8SetBonusEv	CResultBonusPopUp::SetBonus()
0xfb2f1	716	_ZN17CResultBonusPopUp4DrawEv	CResultBonusPopUp::Draw()
0xfb5bd	392	_ZN17CResultBonusPopUp6UpDateEv	CResultBonusPopUp::UpDate()
0xfb745	168	_ZN17CResultBonusPopUp10KeyProcessEi	CResultBonusPopUp::KeyProcess()
0xfb7ed	292	_ZN17CResultBonusPopUp14EvPointerPressE12GxPointerPos	CResultBonusPopUp::EvPointerPress()
0xfb911	208	_ZN17CResultBonusPopUp4InitEv	CResultBonusPopUp::Init()
0xfb9e1	216	_ZN17CResultBonusPopUpC1EP12CResultPopUpii	CResultBonusPopUp()
0xfbab9	564	_ZN12CResultPopUp6UpDateEv	CResultPopUp::UpDate()
0xfbced	216	_ZN17CResultBonusPopUpC2EP12CResultPopUpii	CResultBonusPopUp()
0xfbdc5	56	_ZN17CResultBonusPopUpD1Ev	CResultBonusPopUp()
0xfbdfd	18	_ZN17CResultBonusPopUpD0Ev	CResultBonusPopUp()
0xfbe11	56	_ZN17CResultBonusPopUpD2Ev	CResultBonusPopUp()
0xfbe49	76	_ZN6SArray7GetUIntEii	SArray::GetUInt()
0xfbe95	112	_ZN6SArray6GetIntEii	SArray::GetInt()
0xfbf05	60	_ZN6SArrayD1Ev	SArray()
0xfbf41	18	_ZN6SArrayD0Ev	SArray()
0xfbf55	60	_ZN6SArrayD2Ev	SArray()
0xfbf91	164	_ZN6SArrayC1EPKc	SArray()
0xfc035	164	_ZN6SArrayC2EPKc	SArray()
0xfc0d9	20	_ZN12CSaveDataMgr19GetPlayInfoFileNameEv	CSaveDataMgr::GetPlayInfoFileName()
0xfc0ed	24	_ZN12CSaveDataMgr19GetValidateFileNameEv	CSaveDataMgr::GetValidateFileName()
0xfc105	24	_ZN12CSaveDataMgr21GetConfigInfoFileNameEv	CSaveDataMgr::GetConfigInfoFileName()
0xfc11d	24	_ZN12CSaveDataMgr18GetAppInfoFileNameEv	CSaveDataMgr::GetAppInfoFileName()
0xfc135	24	_ZN12CSaveDataMgr20GetAdminInfoFileNameEv	CSaveDataMgr::GetAdminInfoFileName()
0xfc14d	42	_ZN12CSaveDataMgr13ResetPlayInfoEv	CSaveDataMgr::ResetPlayInfo()
0xfc179	10	_ZN12CSaveDataMgr10IsPlayInfoEv	CSaveDataMgr::IsPlayInfo()
0xfc185	14	_ZN12CSaveDataMgr12SetShowIntroEih	CSaveDataMgr::SetShowIntro()
0xfc195	18	_ZN12CSaveDataMgr12GetShowIntroEi	CSaveDataMgr::GetShowIntro()
0xfc1a9	18	_ZN12CSaveDataMgr13GetStageClearEi	CSaveDataMgr::GetStageClear()
0xfc1bd	38	_ZN12CSaveDataMgr20GetTotalBuyLegacyCntEv	CSaveDataMgr::GetTotalBuyLegacyCnt()
0xfc1e5	26	_ZN12CSaveDataMgr17GetTotalBuyEatCntEv	CSaveDataMgr::GetTotalBuyEatCnt()
0xfc201	10	_ZN12CSaveDataMgr22GetLegacyCombineSlotExEi	CSaveDataMgr::GetLegacyCombineSlotEx()
0xfc20d	16	_ZN12CSaveDataMgr22SetLegacyCombineSlotExEii	CSaveDataMgr::SetLegacyCombineSlotEx()
0xfc21d	16	_ZN12CSaveDataMgr13GetWorksParamEi	CSaveDataMgr::GetWorksParam()
0xfc22d	16	_ZN12CSaveDataMgr18IncreaseWorksCountEi	CSaveDataMgr::IncreaseWorksCount()
0xfc23d	36	_ZN12CGsSingletonI12CSaveDataMgrED1Ev	CGsSingleton()
0xfc261	188	_ZN12CSaveDataMgr20DrawInvalidDataPopUpEv	CSaveDataMgr::DrawInvalidDataPopUp()
0xfc31d	188	_ZN12CSaveDataMgr16DrawNoSpacePopUpEv	CSaveDataMgr::DrawNoSpacePopUp()
0xfc3d9	14	_ZN12CSaveDataMgr16SetWorksShowFlagEib	CSaveDataMgr::SetWorksShowFlag()
0xfc3e9	16	_ZN12CSaveDataMgr12SetWorksFlagEib	CSaveDataMgr::SetWorksFlag()
0xfc3f9	14	_ZN12CSaveDataMgr16GetWorksShowFlagEi	CSaveDataMgr::GetWorksShowFlag()
0xfc409	16	_ZN12CSaveDataMgr12GetWorksFlagEi	CSaveDataMgr::GetWorksFlag()
0xfc419	16	_ZN12CSaveDataMgr9GetLegacyEi	CSaveDataMgr::GetLegacy()
0xfc429	36	_ZN12CSaveDataMgr16GetHaveLegacyCntEv	CSaveDataMgr::GetHaveLegacyCnt()
0xfc44d	22	_Z13GsGetXorValueIiET_S0_	GsGetXorValue()
0xfc465	236	_ZN12CSaveDataMgr15IsCompleteWorksEii	CSaveDataMgr::IsCompleteWorks()
0xfc551	76	_ZN12CSaveDataMgr11BuyNomPointERi	CSaveDataMgr::BuyNomPoint()
0xfc59d	36	_ZN12CSaveDataMgr10GetHackingEv	CSaveDataMgr::GetHacking()
0xfc5c1	52	_ZN12CSaveDataMgr16GetTotalClearCntEv	CSaveDataMgr::GetTotalClearCnt()
0xfc5f5	34	_ZN12CSaveDataMgr16GetStageClearCntEi	CSaveDataMgr::GetStageClearCnt()
0xfc619	82	_ZN12CSaveDataMgr19GetTotalContinueCntEv	CSaveDataMgr::GetTotalContinueCnt()
0xfc66d	38	_ZN12CSaveDataMgr19GetStageContinueCntEih	CSaveDataMgr::GetStageContinueCnt()
0xfc695	38	_ZN12CSaveDataMgr12GetStageRankEi	CSaveDataMgr::GetStageRank()
0xfc6bd	34	_ZN12CSaveDataMgr13GetStageScoreEi	CSaveDataMgr::GetStageScore()
0xfc6e1	48	_ZN12CSaveDataMgr13GetTotalScoreEv	CSaveDataMgr::GetTotalScore()
0xfc711	36	_ZN12CSaveDataMgr13SetFileMaxVerEi	CSaveDataMgr::SetFileMaxVer()
0xfc735	32	_ZN12CSaveDataMgr13GetFileMaxVerEv	CSaveDataMgr::GetFileMaxVer()
0xfc755	36	_ZN12CSaveDataMgr17SetServerAuthTimeEi	CSaveDataMgr::SetServerAuthTime()
0xfc779	28	_ZN12CSaveDataMgr17GetServerAuthTimeEv	CSaveDataMgr::GetServerAuthTime()
0xfc795	36	_ZN12CSaveDataMgr8SetTrialEi	CSaveDataMgr::SetTrial()
0xfc7b9	36	_ZN12CSaveDataMgr8GetTrialEv	CSaveDataMgr::GetTrial()
0xfc7dd	28	_ZN12CSaveDataMgr11GetNomPointEv	CSaveDataMgr::GetNomPoint()
0xfc7f9	26	_Z13GsGetXorValueIhET_S0_	GsGetXorValue()
0xfc815	38	_ZN12CSaveDataMgr12GetStageOpenEi	CSaveDataMgr::GetStageOpen()
0xfc83d	36	_ZN12CSaveDataMgr9InitWorksEv	CSaveDataMgr::InitWorks()
0xfc861	40	_ZN12CSaveDataMgr11GetPlaytimeEv	CSaveDataMgr::GetPlaytime()
0xfc889	52	_ZN12CSaveDataMgr17SaveAdminInfoDataEv	CSaveDataMgr::SaveAdminInfoData()
0xfc8bd	48	_ZN12CSaveDataMgr15SaveAppInfoDataEv	CSaveDataMgr::SaveAppInfoData()
0xfc8ed	126	_ZN12CSaveDataMgr17InitAdminInfoDataEv	CSaveDataMgr::InitAdminInfoData()
0xfc96d	100	_ZN12CSaveDataMgr19ApplyConfigInfoDataEv	CSaveDataMgr::ApplyConfigInfoData()
0xfc9d1	56	_ZN12CSaveDataMgr18SaveConfigInfoDataEv	CSaveDataMgr::SaveConfigInfoData()
0xfca09	216	_ZN12CSaveDataMgr18InitConfigInfoDataEv	CSaveDataMgr::InitConfigInfoData()
0xfcae1	196	_ZN12CSaveDataMgr15InitAppInfoDataEv	CSaveDataMgr::InitAppInfoData()
0xfcba9	488	_ZN12CSaveDataMgr13SetStageClearEiiii	CSaveDataMgr::SetStageClear()
0xfcd91	448	_ZN12CSaveDataMgr13ReSetXorValueEv	CSaveDataMgr::ReSetXorValue()
0xfcf51	32	_ZN12CSaveDataMgr15IsAdminInfoFileEv	CSaveDataMgr::IsAdminInfoFile()
0xfcf71	68	_ZN12CSaveDataMgr17LoadAdminInfoDataEv	CSaveDataMgr::LoadAdminInfoData()
0xfcfb5	32	_ZN12CSaveDataMgr13IsAppInfoFileEv	CSaveDataMgr::IsAppInfoFile()
0xfcfd5	64	_ZN12CSaveDataMgr15LoadAppInfoDataEv	CSaveDataMgr::LoadAppInfoData()
0xfd015	32	_ZN12CSaveDataMgr16IsConfigInfoFileEv	CSaveDataMgr::IsConfigInfoFile()
0xfd035	64	_ZN12CSaveDataMgr18LoadConfigInfoDataEv	CSaveDataMgr::LoadConfigInfoData()
0xfd075	32	_ZN12CSaveDataMgr14IsValidateFileEv	CSaveDataMgr::IsValidateFile()
0xfd095	28	_ZN12CSaveDataMgr14IsPlayInfoFileEv	CSaveDataMgr::IsPlayInfoFile()
0xfd0b1	44	_ZN12CGsSingletonI12CSaveDataMgrED0Ev	CGsSingleton()
0xfd0dd	100	_ZN12CSaveDataMgrD1Ev	CSaveDataMgr()
0xfd141	18	_ZN12CSaveDataMgrD0Ev	CSaveDataMgr()
0xfd155	100	_ZN12CSaveDataMgrD2Ev	CSaveDataMgr()
0xfd1b9	276	_ZN12CSaveDataMgr16SavePlayInfoDataEv	CSaveDataMgr::SavePlayInfoData()
0xfd2cd	56	_ZN12CSaveDataMgr9SetLegacyEib	CSaveDataMgr::SetLegacy()
0xfd305	132	_ZN12CSaveDataMgr11BuyContinueEiii	CSaveDataMgr::BuyContinue()
0xfd389	84	_ZN12CSaveDataMgr6BuyEatEii	CSaveDataMgr::BuyEat()
0xfd3dd	60	_ZN12CSaveDataMgr10GiftLegacyEib	CSaveDataMgr::GiftLegacy()
0xfd419	96	_ZN12CSaveDataMgr9BuyLegacyEii	CSaveDataMgr::BuyLegacy()
0xfd479	52	_ZN12CSaveDataMgr7BuySlotEi	CSaveDataMgr::BuySlot()
0xfd4ad	52	_ZN12CSaveDataMgr12GiftNomPointEib	CSaveDataMgr::GiftNomPoint()
0xfd4e1	12	_ZN12CSaveDataMgr14SetShowOpeningEb	CSaveDataMgr::SetShowOpening()
0xfd4ed	14	_ZN12CSaveDataMgr16SetShowStarPointEb	CSaveDataMgr::SetShowStarPoint()
0xfd4fd	14	_ZN12CSaveDataMgr19SetDisAble3DMessageEb	CSaveDataMgr::SetDisAble3DMessage()
0xfd50d	104	_ZN12CSaveDataMgr11AddNomPointEii	CSaveDataMgr::AddNomPoint()
0xfd575	14	_ZN12CSaveDataMgr17ResetSaveNomPointEv	CSaveDataMgr::ResetSaveNomPoint()
0xfd585	30	_ZN12CSaveDataMgr10SaveDisketEiiiiiiii	CSaveDataMgr::SaveDisket()
0xfd5a5	116	_ZN12CSaveDataMgr12LoadPlayInfoEhb	CSaveDataMgr::LoadPlayInfo()
0xfd619	596	_ZN12CSaveDataMgr16InitPlayInfoDataEv	CSaveDataMgr::InitPlayInfoData()
0xfd86d	268	_ZN12CSaveDataMgr16LoadPlayInfoDataEv	CSaveDataMgr::LoadPlayInfoData()
0xfd979	180	_ZN12CSaveDataMgrC1Ev	CSaveDataMgr()
0xfda2d	180	_ZN12CSaveDataMgrC2Ev	CSaveDataMgr()
0xfdae1	2	_ZN13CSaveFileLoad9OnNetSendEv	CSaveFileLoad::OnNetSend()
0xfdae5	60	_ZN13CSaveFileLoadC2EP10CPopUpBaseP7CScript	CSaveFileLoad()
0xfdb21	60	_ZN13CSaveFileLoadC1EP10CPopUpBaseP7CScript	CSaveFileLoad()
0xfdb5d	2	_ZN13CSaveFileLoad6DeleteEv	CSaveFileLoad::Delete()
0xfdb61	32	_ZN13CSaveFileLoadD1Ev	CSaveFileLoad()
0xfdb81	32	_ZN13CSaveFileLoadD2Ev	CSaveFileLoad()
0xfdba1	2	_ZN13CSaveFileLoad12EvKeyPressedEi	CSaveFileLoad::EvKeyPressed()
0xfdba5	2	_ZN13CSaveFileLoad6OnDrawEv	CSaveFileLoad::OnDraw()
0xfdba9	6	_ZN13CSaveFileLoad9ExitPopupEv	CSaveFileLoad::ExitPopup()
0xfdbb1	32	_ZN14CFileLoadPopUpD1Ev	CFileLoadPopUp()
0xfdbd1	92	_ZN13CSaveFileLoad3RunEv	CSaveFileLoad::Run()
0xfdc2d	56	_ZN14CFileLoadPopUpC1EP10CPopUpBasePcS2_hb	CFileLoadPopUp()
0xfdc65	200	_ZN13CSaveFileLoad7ConnectEv	CSaveFileLoad::Connect()
0xfdd2d	30	_ZN13CSaveFileLoad8SetStateEh	CSaveFileLoad::SetState()
0xfdd4d	60	_ZN14CFileLoadPopUp11DeletePopUpEv	CFileLoadPopUp::DeletePopUp()
0xfdd89	124	_ZN13CSaveFileLoad10OnNetErrorEii	CSaveFileLoad::OnNetError()
0xfde05	176	_ZN13CSaveFileLoad12OnNetReceiveEi	CSaveFileLoad::OnNetReceive()
0xfdeb5	188	_ZN13CSaveFileLoad14SetNetLinktypeE15EnumNetLinkType	CSaveFileLoad::SetNetLinktype()
0xfdf71	56	_ZN14CFileLoadPopUpC2EP10CPopUpBasePcS2_hb	CFileLoadPopUp()
0xfdfa9	40	_ZN14CFileLoadPopUpD0Ev	CFileLoadPopUp()
0xfdfd1	6	_ZN6CScene14EvPointerPressE12GxPointerPos	CScene::EvPointerPress()
0xfdfd9	24	_ZN6CSceneC2Ei	CScene()
0xfdff1	24	_ZN6CSceneC1Ei	CScene()
0xfe009	24	_ZN6CSceneD2Ev	CScene()
0xfe021	24	_ZN6CSceneD1Ev	CScene()
0xfe039	18	_ZN6CSceneD0Ev	CScene()
0xfe04d	10	_ZN7CScript6GetStrEi	CScript::GetStr()
0xfe059	10	_ZN7CScript12GetStrHandleEi	CScript::GetStrHandle()
0xfe065	4	_ZN7CScript11GetTotalNumEv	CScript::GetTotalNum()
0xfe069	92	_ZN7CScriptD1Ev	CScript()
0xfe0c5	18	_ZN7CScriptD0Ev	CScript()
0xfe0d9	92	_ZN7CScriptD2Ev	CScript()
0xfe135	44	_ZN5ArrayIlED1Ev	Array()
0xfe161	224	_ZN7CScriptC1EPc	CScript()
0xfe241	224	_ZN7CScriptC2EPc	CScript()
0xfe321	48	_ZN5ArrayIlED0Ev	Array()
0xfe351	48	_ZN13CScriptEngine17GetScritpTransPosERi	CScriptEngine::GetScritpTransPos()
0xfe381	22	_ZN13CScriptEngine11NextCommandEi	CScriptEngine::NextCommand()
0xfe399	14	_ZN13CScriptEngine19GetCurScriptCommandEv	CScriptEngine::GetCurScriptCommand()
0xfe3a9	14	_ZN13CScriptEngine20GetNextScriptCommandEv	CScriptEngine::GetNextScriptCommand()
0xfe3b9	46	_ZN13CScriptEngine13GetFindObjectEi	CScriptEngine::GetFindObject()
0xfe3e9	106	_ZN13CScriptEngine26Do_SCRIPTCMD_SCREEN_SCROLLEP10recCommand	CScriptEngine::Do_SCRIPTCMD_SCREEN_SCROLL()
0xfe455	48	_ZN13CScriptEngine20Do_SCRIPTCMD_FADE_ONEP10recCommand	CScriptEngine::Do_SCRIPTCMD_FADE_ON()
0xfe485	88	_ZN13CScriptEngine34Init_SCRIPTCMD_OBJ_CHANGE_ANI_INITEP10recCommand	CScriptEngine::Init_SCRIPTCMD_OBJ_CHANGE_ANI_INIT()
0xfe4dd	344	_ZN13CScriptEngine25Do_SCRIPTCMD_OBJ_MOVE_POSEP10recCommand	CScriptEngine::Do_SCRIPTCMD_OBJ_MOVE_POS()
0xfe635	118	_ZN13CScriptEngine10SkipScriptEv	CScriptEngine::SkipScript()
0xfe6ad	60	_ZN13CScriptEngine18DeletePushCmdStackEv	CScriptEngine::DeletePushCmdStack()
0xfe6e9	44	_ZN7CVectorIP13CScriptObjectED1Ev	CVector()
0xfe715	92	_ZN7CVectorIP13CScriptObjectE10AddElementES1_	CVector()
0xfe771	232	_ZN13CScriptEngine16DeleteCommandAllEv	CScriptEngine::DeleteCommandAll()
0xfe859	564	_ZN13CScriptEngine14LoadScriptFileEPc	CScriptEngine::LoadScriptFile()
0xfea8d	88	_ZN13CScriptEngineD1Ev	CScriptEngine()
0xfeae5	88	_ZN13CScriptEngineD2Ev	CScriptEngine()
0xfeb3d	44	_ZN13CScriptEngine27Do_SCRIPTCMD_OBJ_CHANGE_ANIEP10recCommand	CScriptEngine::Do_SCRIPTCMD_OBJ_CHANGE_ANI()
0xfeb69	100	_ZN13CScriptEngine25Do_SCRIPTCMD_SOUND_EFFECTEP10recCommand	CScriptEngine::Do_SCRIPTCMD_SOUND_EFFECT()
0xfebcd	408	_ZN13CScriptEngine14DoScriptEngineEv	CScriptEngine::DoScriptEngine()
0xfed65	144	_ZN13CScriptEngine20Init_SCRIPTCMD_SOUNDEP10recCommand	CScriptEngine::Init_SCRIPTCMD_SOUND()
0xfedf5	80	_ZN13CScriptEngine27Init_SCRIPTCMD_SOUND_EFFECTEP10recCommand	CScriptEngine::Init_SCRIPTCMD_SOUND_EFFECT()
0xfee45	144	_ZN13CScriptEngine23Init_SCRIPTCMD_LOAD_RESEP10recCommand	CScriptEngine::Init_SCRIPTCMD_LOAD_RES()
0xfeed5	88	_ZN13CScriptEngine33Init_SCRIPTCMD_COMMAND_PUSH_STARTEP10recCommand	CScriptEngine::Init_SCRIPTCMD_COMMAND_PUSH_START()
0xfef2d	148	_ZN13CScriptEngine30Init_SCRIPTCMD_OBJ_SET_FLIP_UDEP10recCommand	CScriptEngine::Init_SCRIPTCMD_OBJ_SET_FLIP_UD()
0xfefc1	48	_ZN13CScriptEngine27Init_SCRIPTCMD_RESULT_POPUPEP10recCommand	CScriptEngine::Init_SCRIPTCMD_RESULT_POPUP()
0xfeff1	268	_ZN13CScriptEngine25Init_SCRIPTCMD_OBJ_CREATEEP10recCommand	CScriptEngine::Init_SCRIPTCMD_OBJ_CREATE()
0xff0fd	60	_ZN13CScriptEngine26Init_SCRIPTCMD_OBJ_ENLARGEEP10recCommand	CScriptEngine::Init_SCRIPTCMD_OBJ_ENLARGE()
0xff139	440	_ZN13CScriptEngine30Init_SCRIPTCMD_OBJ_TALKBOX_POSEP10recCommand	CScriptEngine::Init_SCRIPTCMD_OBJ_TALKBOX_POS()
0xff2f1	316	_ZN13CScriptEngine26Init_SCRIPTCMD_OBJ_TALKBOXEP10recCommand	CScriptEngine::Init_SCRIPTCMD_OBJ_TALKBOX()
0xff42d	356	_ZN13CScriptEngineC1EP10CPopUpBase	CScriptEngine()
0xff591	356	_ZN13CScriptEngineC2EP10CPopUpBase	CScriptEngine()
0xff6f5	48	_ZN7CVectorIP13CScriptObjectED0Ev	CVector()
0xff725	196	_ZN13CScriptEngine31Init_SCRIPTCMD_COMMAND_PUSH_ENDEP10recCommand	CScriptEngine::Init_SCRIPTCMD_COMMAND_PUSH_END()
0xff7e9	162	_ZN13CScriptEngine29Init_SCRIPTCMD_OBJ_CHANGE_ANIEP10recCommand	CScriptEngine::Init_SCRIPTCMD_OBJ_CHANGE_ANI()
0xff88d	312	_ZN13CScriptEngine26Init_SCRIPTCMD_OBJ_SET_POSEP10recCommand	CScriptEngine::Init_SCRIPTCMD_OBJ_SET_POS()
0xff9c5	146	_ZN13CScriptEngine27Init_SCRIPTCMD_OBJ_MOVE_POSEP10recCommand	CScriptEngine::Init_SCRIPTCMD_OBJ_MOVE_POS()
0xffa59	148	_ZN13CScriptEngine30Init_SCRIPTCMD_OBJ_SET_FLIP_LREP10recCommand	CScriptEngine::Init_SCRIPTCMD_OBJ_SET_FLIP_LR()
0xffaed	408	_ZN13CScriptEngine16InitScriptEngineEv	CScriptEngine::InitScriptEngine()
0xffc85	44	_ZN13CScriptEngine18ScriptEngineHandleEv	CScriptEngine::ScriptEngineHandle()
0xffcb1	32	_ZN13CScriptEngine20DoScriptEngineHandleEv	CScriptEngine::DoScriptEngineHandle()
0xffcd0	20	_ZThn36_N13CScriptObject10DoFSMLogicEv	_ZThn36_N13CScriptObject10DoFSMLogicEv
0xffce5	228	_ZN13CScriptObject10DoFSMLogicEv	CScriptObject::DoFSMLogic()
0xffdc8	20	_ZThn36_N13CScriptObject12InitFsmLogicEv	_ZThn36_N13CScriptObject12InitFsmLogicEv
0xffddd	74	_ZN13CScriptObject12InitFsmLogicEv	CScriptObject::InitFsmLogic()
0xffe29	106	_ZN13CScriptObject4DrawEii10enumDrawOPil	CScriptObject::Draw()
0xffe95	70	_ZN13CScriptObject7DoLogicEv	CScriptObject::DoLogic()
0xffedc	20	_ZThn36_N13CScriptObjectD1Ev	_ZThn36_N13CScriptObjectD1Ev
0xffef1	56	_ZN13CScriptObjectD1Ev	CScriptObject()
0xfff28	20	_ZThn36_N13CScriptObjectD0Ev	_ZThn36_N13CScriptObjectD0Ev
0xfff3d	18	_ZN13CScriptObjectD0Ev	CScriptObject()
0xfff51	56	_ZN13CScriptObjectD2Ev	CScriptObject()
0xfff89	132	_ZN13CScriptObjectC1EiP7CPzxMgrP13CAniObjectMgr	CScriptObject()
0x10000d	132	_ZN13CScriptObjectC2EiP7CPzxMgrP13CAniObjectMgr	CScriptObject()
0x100091	60	_ZN13CScriptObjectC1EP13CAniObjectMgr	CScriptObject()
0x1000cd	60	_ZN13CScriptObjectC2EP13CAniObjectMgr	CScriptObject()
0x100109	8	_ZN12CScriptPopUp9AppResumeEv	CScriptPopUp::AppResume()
0x100111	2	_ZN12CScriptPopUp8BackDrawEv	CScriptPopUp::BackDraw()
0x100115	18	_ZN12CScriptPopUp13ActiveFadeOutEv	CScriptPopUp::ActiveFadeOut()
0x100129	16	_ZN12CScriptPopUp12ActiveFadeInEv	CScriptPopUp::ActiveFadeIn()
0x100139	28	_ZN12CScriptPopUp14IsPlayingSoundEv	CScriptPopUp::IsPlayingSound()
0x100155	48	_ZN12CScriptPopUp9SoundStopEv	CScriptPopUp::SoundStop()
0x100185	48	_ZN12CScriptPopUp10AppSuspendEv	CScriptPopUp::AppSuspend()
0x1001b5	50	_ZN12CScriptPopUp9SoundPlayEib	CScriptPopUp::SoundPlay()
0x1001e9	52	_ZN12CScriptPopUp18PlayStageBackSoundEv	CScriptPopUp::PlayStageBackSound()
0x10021d	68	_ZN12CScriptPopUp15DrawShakeScreenEv	CScriptPopUp::DrawShakeScreen()
0x100261	38	_ZN12CScriptPopUp13DoShakeScreenEv	CScriptPopUp::DoShakeScreen()
0x100289	26	_ZN12CScriptPopUp17ActiveShakeScreenEii	CScriptPopUp::ActiveShakeScreen()
0x1002a5	44	_ZN12CScriptPopUp19ActiveEnlargeScreenEiillP13CScriptObject	CScriptPopUp::ActiveEnlargeScreen()
0x1002d1	68	_ZN12CScriptPopUp16DrawElargeScreenEv	CScriptPopUp::DrawElargeScreen()
0x100315	124	_ZN12CScriptPopUp15DoEnlargeScreenEv	CScriptPopUp::DoEnlargeScreen()
0x100391	14	_ZN12CScriptPopUp16SetStageObjectOnEb	CScriptPopUp::SetStageObjectOn()
0x1003a1	496	_ZN12CScriptPopUp9EndScriptEv	CScriptPopUp::EndScript()
0x100591	360	_ZN12CScriptPopUp4DrawEv	CScriptPopUp::Draw()
0x1006f9	216	_ZN12CScriptPopUp6UpDateEv	CScriptPopUp::UpDate()
0x1007d1	86	_ZN12CScriptPopUp10KeyProcessEi	CScriptPopUp::KeyProcess()
0x100829	72	_ZN12CScriptPopUp14EvPointerPressE12GxPointerPos	CScriptPopUp::EvPointerPress()
0x100871	108	_ZN12CScriptPopUpD1Ev	CScriptPopUp()
0x1008dd	18	_ZN12CScriptPopUpD0Ev	CScriptPopUp()
0x1008f1	108	_ZN12CScriptPopUpD2Ev	CScriptPopUp()
0x10095d	304	_ZN12CScriptPopUpC1EP7CMapMgrih	CScriptPopUp()
0x100a8d	304	_ZN12CScriptPopUpC2EP7CMapMgrih	CScriptPopUp()
0x100bbd	2	_ZN12CScriptScene8MsgCrackEP8CMessage	CScriptScene::MsgCrack()
0x100bc1	54	_ZN12CScriptScene4InitEv	CScriptScene::Init()
0x100bf9	38	_ZN12CScriptScene6DeleteEv	CScriptScene::Delete()
0x100c21	2	_ZN12CScriptScene10KeyPressedEi	CScriptScene::KeyPressed()
0x100c25	2	_ZN12CScriptScene11KeyReleasedEi	CScriptScene::KeyReleased()
0x100c29	6	_ZN12CScriptScene13EvPointerMoveE12GxPointerPos	CScriptScene::EvPointerMove()
0x100c31	6	_ZN12CScriptScene16EvPointerReleaseE12GxPointerPos	CScriptScene::EvPointerRelease()
0x100c39	2	_ZN12CScriptScene10AppSuspendEv	CScriptScene::AppSuspend()
0x100c3d	2	_ZN12CScriptScene9AppResumeEv	CScriptScene::AppResume()
0x100c41	76	_ZN12CScriptScene25DoFSM_SCENE_SCRIPT_FADEINEv	CScriptScene::DoFSM_SCENE_SCRIPT_FADEIN()
0x100c8d	180	_ZN12CScriptScene29InitFSM_SCENE_SCRIPT_LOAD_RESEv	CScriptScene::InitFSM_SCENE_SCRIPT_LOAD_RES()
0x100d41	56	_ZN12CScriptScene11StartScriptEv	CScriptScene::StartScript()
0x100d78	20	_ZThn8_N12CScriptScene10DoFSMLogicEv	_ZThn8_N12CScriptScene10DoFSMLogicEv
0x100d8d	66	_ZN12CScriptScene10DoFSMLogicEv	CScriptScene::DoFSMLogic()
0x100dd1	34	_ZN12CScriptScene28InitFSM_SCENE_SCRIPT_FADEOUTEv	CScriptScene::InitFSM_SCENE_SCRIPT_FADEOUT()
0x100df4	20	_ZThn8_N12CScriptScene12InitFsmLogicEv	_ZThn8_N12CScriptScene12InitFsmLogicEv
0x100e09	38	_ZN12CScriptScene12InitFsmLogicEv	CScriptScene::InitFsmLogic()
0x100e31	64	_ZN12CScriptScene9SetScriptEi	CScriptScene::SetScript()
0x100e71	32	_ZN12CScriptScene10InitScriptEv	CScriptScene::InitScript()
0x100e91	168	_ZN12CScriptScene9DrawSceneEii	CScriptScene::DrawScene()
0x100f39	10	_ZN12CScriptScene7DoLogicEv	CScriptScene::DoLogic()
0x100f45	20	_ZN12CScriptScene14EvPointerPressE12GxPointerPos	CScriptScene::EvPointerPress()
0x100f58	20	_ZThn8_N12CScriptSceneD1Ev	_ZThn8_N12CScriptSceneD1Ev
0x100f6d	52	_ZN12CScriptSceneD1Ev	CScriptScene()
0x100fa0	20	_ZThn8_N12CScriptSceneD0Ev	_ZThn8_N12CScriptSceneD0Ev
0x100fb5	18	_ZN12CScriptSceneD0Ev	CScriptScene()
0x100fc9	52	_ZN12CScriptSceneD2Ev	CScriptScene()
0x100ffd	72	_ZN12CScriptSceneC1Ei	CScriptScene()
0x101045	72	_ZN12CScriptSceneC2Ei	CScriptScene()
0x10108d	56	_ZN15CStageGamePopup6DeleteEv	CStageGamePopup::Delete()
0x1010c5	20	_ZN15CStageGamePopup11KeyReleasedEi	CStageGamePopup::KeyReleased()
0x1010d9	6	_ZN15CStageGamePopup13EvPointerMoveE12GxPointerPos	CStageGamePopup::EvPointerMove()
0x1010e1	46	_ZN15CStageGamePopup16EvPointerReleaseE12GxPointerPos	CStageGamePopup::EvPointerRelease()
0x101111	10	_ZN15CStageGamePopup10AppSuspendEv	CStageGamePopup::AppSuspend()
0x10111d	2	_ZN15CStageGamePopup9AppResumeEv	CStageGamePopup::AppResume()
0x101121	6	_ZN15CStageGamePopup17ActiveShakeScreenEii	CStageGamePopup::ActiveShakeScreen()
0x101129	22	_ZN15CStageGamePopup13DoShakeScreenEv	CStageGamePopup::DoShakeScreen()
0x101141	16	_ZN15CStageGamePopup17ActiveSparkScreenEiji	CStageGamePopup::ActiveSparkScreen()
0x101151	90	_ZN15CStageGamePopup13DoSparkScreenEv	CStageGamePopup::DoSparkScreen()
0x1011ad	28	_ZN15CStageGamePopup14IsPlayingSoundEv	CStageGamePopup::IsPlayingSound()
0x1011c9	60	_ZN15CStageGamePopup27DoFSM_SCENE_STAGEGAME_PAUSEEv	CStageGamePopup::DoFSM_SCENE_STAGEGAME_PAUSE()
0x101205	96	_ZN15CStageGamePopup34DoFSM_SCENE_STAGEGAME_ROTATE_SCALEEv	CStageGamePopup::DoFSM_SCENE_STAGEGAME_ROTATE_SCALE()
0x101265	108	_ZN15CStageGamePopup32InitFSM_SCENE_STAGEGAME_LOAD_RESEv	CStageGamePopup::InitFSM_SCENE_STAGEGAME_LOAD_RES()
0x1012d1	76	_ZN15CStageGamePopup4InitEv	CStageGamePopup::Init()
0x10131c	20	_ZThn24_N15CStageGamePopup12InitFsmLogicEv	_ZThn24_N15CStageGamePopup12InitFsmLogicEv
0x101331	148	_ZN15CStageGamePopup12InitFsmLogicEv	CStageGamePopup::InitFsmLogic()
0x1013c5	48	_ZN15CStageGamePopup9SoundStopEv	CStageGamePopup::SoundStop()
0x1013f5	104	_ZN15CStageGamePopup9SoundPlayEib	CStageGamePopup::SoundPlay()
0x10145d	120	_ZN15CStageGamePopup18PlayStageBackSoundEv	CStageGamePopup::PlayStageBackSound()
0x1014d5	24	_ZN15CStageGamePopup25DoFSM_SCENE_STAGEGAME_RUNEv	CStageGamePopup::DoFSM_SCENE_STAGEGAME_RUN()
0x1014ed	80	_ZN15CStageGamePopup28DoFSM_SCENE_STAGEGAME_FADEINEv	CStageGamePopup::DoFSM_SCENE_STAGEGAME_FADEIN()
0x10153c	20	_ZThn24_N15CStageGamePopup10DoFSMLogicEv	_ZThn24_N15CStageGamePopup10DoFSMLogicEv
0x101551	92	_ZN15CStageGamePopup10DoFSMLogicEv	CStageGamePopup::DoFSMLogic()
0x1015ad	118	_ZN15CStageGamePopup11ContinueNowEv	CStageGamePopup::ContinueNow()
0x101625	68	_ZN15CStageGamePopup16DrawElargeScreenEv	CStageGamePopup::DrawElargeScreen()
0x101669	104	_ZN15CStageGamePopup15DoEnlargeScreenEv	CStageGamePopup::DoEnlargeScreen()
0x1016d1	52	_ZN15CStageGamePopup19ActiveEnlargeScreenEiillP4CNom	CStageGamePopup::ActiveEnlargeScreen()
0x101705	56	_ZN15CStageGamePopup15DrawSparkScreenEv	CStageGamePopup::DrawSparkScreen()
0x10173d	68	_ZN15CStageGamePopup15DrawShakeScreenEv	CStageGamePopup::DrawShakeScreen()
0x101781	432	_ZN15CStageGamePopup4DrawEv	CStageGamePopup::Draw()
0x101931	64	_ZN15CStageGamePopup6UpDateEv	CStageGamePopup::UpDate()
0x101971	176	_ZN15CStageGamePopup14EvPointerPressE12GxPointerPos	CStageGamePopup::EvPointerPress()
0x101a21	68	_ZN15CStageGamePopup10KeyProcessEi	CStageGamePopup::KeyProcess()
0x101a64	20	_ZThn24_N15CStageGamePopupD1Ev	_ZThn24_N15CStageGamePopupD1Ev
0x101a79	52	_ZN15CStageGamePopupD1Ev	CStageGamePopup()
0x101aac	20	_ZThn24_N15CStageGamePopupD0Ev	_ZThn24_N15CStageGamePopupD0Ev
0x101ac1	18	_ZN15CStageGamePopupD0Ev	CStageGamePopup()
0x101ad5	52	_ZN15CStageGamePopupD2Ev	CStageGamePopup()
0x101b09	116	_ZN15CStageGamePopupC1EhhP10CMapPzxMgr	CStageGamePopup()
0x101b7d	116	_ZN15CStageGamePopupC2EhhP10CMapPzxMgr	CStageGamePopup()
0x101bf1	2	_ZN15CStageGameScene8MsgCrackEP8CMessage	CStageGameScene::MsgCrack()
0x101bf5	54	_ZN15CStageGameScene4InitEv	CStageGameScene::Init()
0x101c2d	54	_ZN15CStageGameScene6DeleteEv	CStageGameScene::Delete()
0x101c65	18	_ZN15CStageGameScene11KeyReleasedEi	CStageGameScene::KeyReleased()
0x101c79	6	_ZN15CStageGameScene13EvPointerMoveE12GxPointerPos	CStageGameScene::EvPointerMove()
0x101c81	46	_ZN15CStageGameScene16EvPointerReleaseE12GxPointerPos	CStageGameScene::EvPointerRelease()
0x101cb1	10	_ZN15CStageGameScene10AppSuspendEv	CStageGameScene::AppSuspend()
0x101cbd	16	_ZN15CStageGameScene17ActiveSparkScreenEiji	CStageGameScene::ActiveSparkScreen()
0x101ccd	90	_ZN15CStageGameScene13DoSparkScreenEv	CStageGameScene::DoSparkScreen()
0x101d29	70	_ZN15CStageGameScene10InitScriptEv	CStageGameScene::InitScript()
0x101d71	28	_ZN15CStageGameScene14IsPlayingSoundEv	CStageGameScene::IsPlayingSound()
0x101d8d	60	_ZN15CStageGameScene27DoFSM_SCENE_STAGEGAME_PAUSEEv	CStageGameScene::DoFSM_SCENE_STAGEGAME_PAUSE()
0x101dc9	96	_ZN15CStageGameScene34DoFSM_SCENE_STAGEGAME_ROTATE_SCALEEv	CStageGameScene::DoFSM_SCENE_STAGEGAME_ROTATE_SCALE()
0x101e29	232	_ZN15CStageGameScene32InitFSM_SCENE_STAGEGAME_LOAD_RESEv	CStageGameScene::InitFSM_SCENE_STAGEGAME_LOAD_RES()
0x101f11	34	_ZN15CStageGameScene31InitFSM_SCENE_STAGEGAME_FADEOUTEv	CStageGameScene::InitFSM_SCENE_STAGEGAME_FADEOUT()
0x101f35	102	_ZN15CStageGameScene9SetScriptEi	CStageGameScene::SetScript()
0x101f9d	224	_ZN15CStageGameScene28InitFSM_SCENE_STAGEGAME_NEXTEb	CStageGameScene::InitFSM_SCENE_STAGEGAME_NEXT()
0x10207c	20	_ZThn8_N15CStageGameScene12InitFsmLogicEv	_ZThn8_N15CStageGameScene12InitFsmLogicEv
0x102091	140	_ZN15CStageGameScene12InitFsmLogicEv	CStageGameScene::InitFsmLogic()
0x10211d	48	_ZN15CStageGameScene9SoundStopEv	CStageGameScene::SoundStop()
0x10214d	104	_ZN15CStageGameScene9SoundPlayEib	CStageGameScene::SoundPlay()
0x1021b5	144	_ZN15CStageGameScene18PlayStageBackSoundEv	CStageGameScene::PlayStageBackSound()
0x102245	24	_ZN15CStageGameScene25DoFSM_SCENE_STAGEGAME_RUNEv	CStageGameScene::DoFSM_SCENE_STAGEGAME_RUN()
0x10225d	94	_ZN15CStageGameScene28DoFSM_SCENE_STAGEGAME_FADEINEv	CStageGameScene::DoFSM_SCENE_STAGEGAME_FADEIN()
0x1022bd	124	_ZN15CStageGameScene11StartScriptEv	CStageGameScene::StartScript()
0x102338	20	_ZThn8_N15CStageGameScene10DoFSMLogicEv	_ZThn8_N15CStageGameScene10DoFSMLogicEv
0x10234d	108	_ZN15CStageGameScene10DoFSMLogicEv	CStageGameScene::DoFSMLogic()
0x1023b9	118	_ZN15CStageGameScene11ContinueNowEv	CStageGameScene::ContinueNow()
0x102431	34	_ZN15CStageGameScene13DoShakeScreenEv	CStageGameScene::DoShakeScreen()
0x102455	18	_ZN15CStageGameScene17ActiveShakeScreenEii	CStageGameScene::ActiveShakeScreen()
0x102469	276	_ZN15CStageGameScene12ContinueSaveEi	CStageGameScene::ContinueSave()
0x10257d	68	_ZN15CStageGameScene16DrawElargeScreenEv	CStageGameScene::DrawElargeScreen()
0x1025c1	172	_ZN15CStageGameScene15DoEnlargeScreenEv	CStageGameScene::DoEnlargeScreen()
0x10266d	64	_ZN15CStageGameScene19ActiveEnlargeScreenEiillP4CNom	CStageGameScene::ActiveEnlargeScreen()
0x1026ad	56	_ZN15CStageGameScene15DrawSparkScreenEv	CStageGameScene::DrawSparkScreen()
0x1026e5	68	_ZN15CStageGameScene15DrawShakeScreenEv	CStageGameScene::DrawShakeScreen()
0x102729	356	_ZN15CStageGameScene9DrawSceneEii	CStageGameScene::DrawScene()
0x10288d	60	_ZN15CStageGameScene7DoLogicEv	CStageGameScene::DoLogic()
0x1028c9	38	_ZN15CStageGameScene9AppResumeEv	CStageGameScene::AppResume()
0x1028f1	128	_ZN15CStageGameScene10KeyPressedEi	CStageGameScene::KeyPressed()
0x102971	180	_ZN15CStageGameScene14EvPointerPressE12GxPointerPos	CStageGameScene::EvPointerPress()
0x102a24	20	_ZThn8_N15CStageGameSceneD1Ev	_ZThn8_N15CStageGameSceneD1Ev
0x102a39	52	_ZN15CStageGameSceneD1Ev	CStageGameScene()
0x102a6c	20	_ZThn8_N15CStageGameSceneD0Ev	_ZThn8_N15CStageGameSceneD0Ev
0x102a81	18	_ZN15CStageGameSceneD0Ev	CStageGameScene()
0x102a95	52	_ZN15CStageGameSceneD2Ev	CStageGameScene()
0x102ac9	136	_ZN15CStageGameSceneC1Ev	CStageGameScene()
0x102b51	136	_ZN15CStageGameSceneC2Ev	CStageGameScene()
0x102bd9	4	_ZN12StringBuffer4SizeEv	StringBuffer::Size()
0x102bdd	8	_ZN12StringBuffer5ResetEv	StringBuffer::Reset()
0x102be5	4	_ZN12StringBuffer11ToCharArrayEv	StringBuffer::ToCharArray()
0x102be9	172	_ZN12StringBuffer11LastIndexOfEPci	StringBuffer::LastIndexOf()
0x102c95	14	_ZN12StringBuffer11LastIndexOfERS_	StringBuffer::LastIndexOf()
0x102ca5	72	_ZN12StringBuffer11LastIndexOfEci	StringBuffer::LastIndexOf()
0x102ced	98	_ZN12StringBuffer7IndexOfEPKci	StringBuffer::IndexOf()
0x102d51	58	_ZN12StringBuffer7IndexOfEci	StringBuffer::IndexOf()
0x102d8d	52	_ZN12StringBuffer7ReplaceEcc	StringBuffer::Replace()
0x102dc1	10	_ZN12StringBuffer6LengthEv	StringBuffer::Length()
0x102dcd	36	_ZN12StringBuffer5ClearEi	StringBuffer::Clear()
0x102df1	40	_ZN12StringBufferC1Ei	StringBuffer()
0x102e19	40	_ZN12StringBufferC2Ei	StringBuffer()
0x102e41	40	_ZN12StringBufferC1Ev	StringBuffer()
0x102e69	40	_ZN12StringBufferC2Ev	StringBuffer()
0x102e91	44	_ZN12StringBufferD1Ev	StringBuffer()
0x102ebd	44	_ZN12StringBufferD2Ev	StringBuffer()
0x102ee9	80	_ZN12StringBuffer6AppendEPKc	StringBuffer::Append()
0x102f39	80	_ZN12StringBuffer6AppendEi	StringBuffer::Append()
0x102f89	30	_ZN12StringBuffer9SubStringEPcii	StringBuffer::SubString()
0x102fa9	18	_ZN12StringBufferD0Ev	StringBuffer()
0x102fbd	6	_ZN8CTalkBox11StopTalkBoxEv	CTalkBox::StopTalkBox()
0x102fc5	56	_ZN8CTalkBox6SetStrEPc	CTalkBox::SetStr()
0x102ffd	26	_ZN8CTalkBox4InitEPc12eTalkBoxKindiii	CTalkBox::Init()
0x103019	256	_ZN8CTalkBox13ActiveTalkBoxEPKc12eTalkBoxTypei12eTalkBoxKind19eTaklBoxEmotionKindb	CTalkBox::ActiveTalkBox()
0x103119	28	_ZN8CTalkBox13ActiveTalkBoxEv	CTalkBox::ActiveTalkBox()
0x103135	1364	_ZN8CTalkBox4DrawEii11eDrawOp_Nomil	CTalkBox::Draw()
0x103689	92	_ZN8CTalkBox7DoLogicEv	CTalkBox::DoLogic()
0x1036e5	52	_ZN8CTalkBoxD1Ev	CTalkBox()
0x103719	18	_ZN8CTalkBoxD0Ev	CTalkBox()
0x10372d	52	_ZN8CTalkBoxD2Ev	CTalkBox()
0x103761	68	_ZN8CTalkBoxC1Ev	CTalkBox()
0x1037a5	68	_ZN8CTalkBoxC2Ev	CTalkBox()
0x1037e9	70	_ZN11CTermsPopup6DeleteEv	CTermsPopup::Delete()
0x103831	128	_ZN11CTermsPopup12CalMaxScrollEv	CTermsPopup::CalMaxScroll()
0x1038b1	268	_ZN11CTermsPopup14EvPointerPressE12GxPointerPos	CTermsPopup::EvPointerPress()
0x1039bd	96	_ZN11CTermsPopup8BackDrawEv	CTermsPopup::BackDraw()
0x103a1d	1160	_ZN11CTermsPopup4DrawEv	CTermsPopup::Draw()
0x103ea5	10	_ZN11CTermsPopup6UpDateEv	CTermsPopup::UpDate()
0x103eb1	144	_ZN11CTermsPopup10KeyProcessEi	CTermsPopup::KeyProcess()
0x103f41	252	_ZN11CTermsPopup4InitEv	CTermsPopup::Init()
0x10403d	40	_ZN11CTermsPopupD1Ev	CTermsPopup()
0x104065	18	_ZN11CTermsPopupD0Ev	CTermsPopup()
0x104079	40	_ZN11CTermsPopupD2Ev	CTermsPopup()
0x1040a1	60	_ZN11CTermsPopupC1EP10CPopUpBase	CTermsPopup()
0x1040dd	60	_ZN11CTermsPopupC2EP10CPopUpBase	CTermsPopup()
0x104119	28	_ZN6TickerC2Ev	Ticker()
0x104135	28	_ZN6TickerC1Ev	Ticker()
0x104151	4	_ZN6Ticker11SetQuadRantE9eQuadRant	Ticker::SetQuadRant()
0x104155	6	_ZN6Ticker11SetPositionEii	Ticker::SetPosition()
0x10415d	4	_ZN6Ticker8SetVelocEi	Ticker::SetVeloc()
0x104161	22	_ZN6Ticker8SetBoundEi	Ticker::SetBound()
0x104179	28	_ZN6Ticker8SetFocusEb	Ticker::SetFocus()
0x104195	6	_ZN6Ticker8GetFocusEv	Ticker::GetFocus()
0x10419d	4	_ZN6Ticker8SetColorEl	Ticker::SetColor()
0x1041a1	44	_ZN6Ticker7DoLogicEv	Ticker::DoLogic()
0x1041cd	308	_ZN6Ticker4DrawEv	Ticker::Draw()
0x104301	44	_ZN6TickerD1Ev	Ticker()
0x10432d	44	_ZN6TickerD2Ev	Ticker()
0x104359	112	_ZN6Ticker6SetStrEPc	Ticker::SetStr()
0x1043c9	108	_ZN6TickerC1EPciiiibl	Ticker()
0x104435	108	_ZN6TickerC2EPciiiibl	Ticker()
0x1044a1	18	_ZN6TickerD0Ev	Ticker()
0x1044b5	4	MC_fsMkDir	MC_fsMkDir
0x1044b9	4	MC_fsRmDir	MC_fsRmDir
0x1044bd	4	MC_fsList	MC_fsList
0x1044c1	6	MC_fsTotalSpace	MC_fsTotalSpace
0x1044c9	6	MC_fsAvailable	MC_fsAvailable
0x1044d1	8	MC_fsTell	MC_fsTell
0x1044d9	8	MC_fsSeek	MC_fsSeek
0x1044e1	56	_Z7find_fdi	find_fd()
0x104519	72	_Z9remove_fdi	remove_fd()
0x104561	12	_Z11is_valid_fdi	is_valid_fd()
0x10456d	32	MC_fsClose	MC_fsClose
0x10458d	20	_Z6get_fdi	get_fd()
0x1045a1	42	MC_fsWrite	MC_fsWrite
0x1045cd	66	MC_fsRead	MC_fsRead
0x104611	60	_Z6new_fdP7__sFILE	new_fd()
0x10464d	112	_Z13get_real_pathPcS_	get_real_path()
0x1046bd	96	MC_fsIsExist	MC_fsIsExist
0x10471d	176	MC_fsRename	MC_fsRename
0x1047cd	128	MC_fsRemove	MC_fsRemove
0x10484d	184	MC_fsFileAttribute	MC_fsFileAttribute
0x104905	220	MC_fsOpen	MC_fsOpen
0x1049e1	18	MC_grpGetPixelFromRGB	MC_grpGetPixelFromRGB
0x1049f5	2	MC_grpGetRGBPixels	MC_grpGetRGBPixels
0x1049f9	2	MC_grpSetRGBPixels	MC_grpSetRGBPixels
0x1049fd	14	GxFont_Platform_DeleteFrameBufferPtr	GxFont_Platform_DeleteFrameBufferPtr
0x104a0d	2	MC_grpCopyFrameBuffer	MC_grpCopyFrameBuffer
0x104a11	2	MC_grpCopyArea	MC_grpCopyArea
0x104a15	94	MC_grpSetContext	MC_grpSetContext
0x104a75	80	MC_grpGetContext	MC_grpGetContext
0x104ac5	98	_Z13getAlphaColorssi	getAlphaColor()
0x104b29	2	MC_grpDrawImageRegion	MC_grpDrawImageRegion
0x104b2d	2	MC_grpDrawString	MC_grpDrawString
0x104b31	2	MC_grpDrawUnicodeString	MC_grpDrawUnicodeString
0x104b35	4	MC_grpGetStringWidth	MC_grpGetStringWidth
0x104b39	4	MC_grpCreateImage	MC_grpCreateImage
0x104b3d	2	MC_grpDestroyImage	MC_grpDestroyImage
0x104b41	4	MC_grpGetImageProperty	MC_grpGetImageProperty
0x104b45	2	MC_grpGetImageFrameBuffer	MC_grpGetImageFrameBuffer
0x104b49	4	MC_grpDecodeNextImage	MC_grpDecodeNextImage
0x104b4d	4	MC_grpEncodeImage	MC_grpEncodeImage
0x104b51	2	_Z13FirePostEventPvS_	FirePostEvent()
0x104b55	4	MC_grpPostEvent	MC_grpPostEvent
0x104b59	4	MC_imGetSurpportModeCount	MC_imGetSurpportModeCount
0x104b5d	4	MC_imSetCurrentMode	MC_imSetCurrentMode
0x104b61	4	MC_imHandleInput	MC_imHandleInput
0x104b65	4	MC_grpGetFontHeight	MC_grpGetFontHeight
0x104b69	4	MC_grpGetFontAscent	MC_grpGetFontAscent
0x104b6d	4	MC_grpGetFont	MC_grpGetFont
0x104b71	88	MC_imGetSupportedModes	MC_imGetSupportedModes
0x104bc9	216	MC_grpFillRect	MC_grpFillRect
0x104ca1	680	MC_grpDrawLine	MC_grpDrawLine
0x104f49	548	MC_grpFillPolygon	MC_grpFillPolygon
0x105171	116	MC_grpDrawPolygon	MC_grpDrawPolygon
0x1051e5	420	_Z8draw_arclllllllP14_MC_GrpContextb	draw_arc()
0x105389	134	MC_grpFillArc	MC_grpFillArc
0x105411	134	MC_grpDrawArc	MC_grpDrawArc
0x105499	206	MC_grpDrawRect	MC_grpDrawRect
0x105569	116	MC_grpPutPixel	MC_grpPutPixel
0x1055dd	48	MC_grpInitContext	MC_grpInitContext
0x10560d	54	MC_grpGetDisplayInfo	MC_grpGetDisplayInfo
0x105645	218	MC_grpDrawImage	MC_grpDrawImage
0x105721	24	MC_grpFlushLcd	MC_grpFlushLcd
0x105739	60	MC_grpCreateOffScreenFrameBuffer	MC_grpCreateOffScreenFrameBuffer
0x105775	56	MC_grpGetScreenFrameBuffer	MC_grpGetScreenFrameBuffer
0x1057ad	40	MC_grpDestroyOffScreenFrameBuffer	MC_grpDestroyOffScreenFrameBuffer
0x1057d5	68	GxFont_Platform_CreateFrameBufferPtr	GxFont_Platform_CreateFrameBufferPtr
0x105819	4	_Z18MC_knlGetExecNamesPaS_S_S_l	MC_knlGetExecNames()
0x10581d	8	MC_knlExecute	MC_knlExecute
0x105825	8	MC_knlLoad	MC_knlLoad
0x10582d	4	MC_knlUnload	MC_knlUnload
0x105831	4	MC_knlGetDllInterface	MC_knlGetDllInterface
0x105835	4	MC_knlProgramStop	MC_knlProgramStop
0x105839	4	MC_knlGetCurProgramID	MC_knlGetCurProgramID
0x10583d	4	MC_knlGetParentProgramID	MC_knlGetParentProgramID
0x105841	4	MC_knlGetAppManagerID	MC_knlGetAppManagerID
0x105845	4	MC_knlGetProgramInfo	MC_knlGetProgramInfo
0x105849	4	MC_knlGetAccessLevel	MC_knlGetAccessLevel
0x10584d	4	MC_knlGetProgramName	MC_knlGetProgramName
0x105851	8	MC_knlGetTotalMemory	MC_knlGetTotalMemory
0x105859	8	MC_knlGetFreeMemory	MC_knlGetFreeMemory
0x105861	4	_Z18find_timer_elementP8_MCTimer	find_timer_element()
0x105865	4	_Z20remove_timer_elementP8_MCTimer	remove_timer_element()
0x105869	44	threadCallback	threadCallback
0x105895	52	AsyncMultiThreadCallback	AsyncMultiThreadCallback
0x1058c9	64	_Z16MC_knlGetTimerIDP8_MCTimer	MC_knlGetTimerID()
0x105909	72	MC_knlDefTimer	MC_knlDefTimer
0x105951	2	_Z13TimerCallBackPvS_	TimerCallBack()
0x105955	60	MC_knlUnsetTimer	MC_knlUnsetTimer
0x105991	6	MC_knlTimeZoneDiffTime	MC_knlTimeZoneDiffTime
0x105999	4	MC_knlSetSystemProperty	MC_knlSetSystemProperty
0x10599d	4	_Z21find_resource_elementi	find_resource_element()
0x1059a1	4	_Z31find_resource_element_with_namePc	find_resource_element_with_name()
0x1059a5	44	MC_knlGetResource	MC_knlGetResource
0x1059d1	64	MC_knlGetResourceID	MC_knlGetResourceID
0x105a11	76	MC_knlGetSystemProperty	MC_knlGetSystemProperty
0x105a61	64	MC_knlCurrentTime	MC_knlCurrentTime
0x105aa1	136	MC_knlSetTimer	MC_knlSetTimer
0x105b29	32	MC_knlFree	MC_knlFree
0x105b49	44	MC_knlCalloc	MC_knlCalloc
0x105b75	32	_Z11MC_knlAllocl	MC_knlAlloc()
0x105b95	10	MC_knlExit	MC_knlExit
0x105ba1	26	MC_knlSprintk	MC_knlSprintk
0x105bbd	26	MC_knlPrintk	MC_knlPrintk
0x105bd9	4	MC_mdaClipCreate	MC_mdaClipCreate
0x105bdd	14	MC_mdaClipPutData	MC_mdaClipPutData
0x105bed	4	MC_mdaPlay	MC_mdaPlay
0x105bf1	4	MC_mdaClipClearData	MC_mdaClipClearData
0x105bf5	4	MC_mdaStop	MC_mdaStop
0x105bf9	4	MC_mdaClipSetVolume	MC_mdaClipSetVolume
0x105bfd	4	MC_mdaGetDefaultVolume	MC_mdaGetDefaultVolume
0x105c01	2	MC_mdaSetVolume	MC_mdaSetVolume
0x105c05	4	MC_mdaVibrator	MC_mdaVibrator
0x105c09	4	MC_mdaSetMuteState	MC_mdaSetMuteState
0x105c0d	4	MC_mdaGetMuteState	MC_mdaGetMuteState
0x105c11	4	MC_mdaClipAllocPlayer	MC_mdaClipAllocPlayer
0x105c15	4	MC_mdaClipFreePlayer	MC_mdaClipFreePlayer
0x105c19	8	MC_androidVibrator	MC_androidVibrator
0x105c21	8	MC_androidStopSound	MC_androidStopSound
0x105c29	12	MC_androidPlaySound	MC_androidPlaySound
0x105c35	24	MC_mdaClipFree	MC_mdaClipFree
0x105c4d	4	MC_miscBackLight	MC_miscBackLight
0x105c51	32	MC_utilHtonl	MC_utilHtonl
0x105c71	14	MC_utilHtons	MC_utilHtons
0x105c81	4	MC_getMachineName	MC_getMachineName
0x105c85	4	MC_utilIsIPhone	MC_utilIsIPhone
0x105c89	4	MC_getUDID	MC_getUDID
0x105c8d	4	MC_getHarewareProfile	MC_getHarewareProfile
0x105c91	4	MC_getFriends	MC_getFriends
0x105c95	4	MC_getMyFacebookData	MC_getMyFacebookData
0x105c99	40	MC_GetCurrentLocalTime	MC_GetCurrentLocalTime
0x105cc1	8	MC_utilInetAddrInt	MC_utilInetAddrInt
0x105cc9	28	initPlatformSize	initPlatformSize
0x105ce5	2	initPlatform	initPlatform
0x105ce9	20	platformGetDeviceWidth	platformGetDeviceWidth
0x105cfd	20	platformGetDeviceHeight	platformGetDeviceHeight
0x105d11	20	platformGetFramebufferWidth	platformGetFramebufferWidth
0x105d25	20	platformGetFramebufferHeight	platformGetFramebufferHeight
0x105d39	16	platformDrawBitmap	platformDrawBitmap
0x105d49	24	_ZN13IGxFontBufferD1Ev	IGxFontBuffer()
0x105d61	24	_ZN7IGxFontD1Ev	IGxFont()
0x105d79	2	_ZN7IGxFont9SetHSpaceEi	IGxFont::SetHSpace()
0x105d7d	2	_ZN7IGxFont9SetVSpaceEi	IGxFont::SetVSpace()
0x105d81	4	_ZN7IGxFont9GetHSpaceEv	IGxFont::GetHSpace()
0x105d85	4	_ZN7IGxFont9GetVSpaceEv	IGxFont::GetVSpace()
0x105d89	4	_ZN17CGxSurfaceAndroid9GetBufferEv	CGxSurfaceAndroid::GetBuffer()
0x105d8d	4	_ZN17CGxSurfaceAndroid6GetBPPEv	CGxSurfaceAndroid::GetBPP()
0x105d91	4	_ZN17CGxSurfaceAndroid6GetBPLEv	CGxSurfaceAndroid::GetBPL()
0x105d95	4	_ZN17CGxSurfaceAndroid8GetWidthEv	CGxSurfaceAndroid::GetWidth()
0x105d99	4	_ZN17CGxSurfaceAndroid9GetHeightEv	CGxSurfaceAndroid::GetHeight()
0x105d9d	8	_ZN17CGxSurfaceAndroid13IsInitializedEv	CGxSurfaceAndroid::IsInitialized()
0x105da5	4	_ZN14CGxFontAndroid11GetFontSizeEv	CGxFontAndroid::GetFontSize()
0x105da9	4	_ZN14CGxFontAndroid12GetTextColorEv	CGxFontAndroid::GetTextColor()
0x105dad	4	_ZN14CGxFontAndroid12GetCharWidthEv	CGxFontAndroid::GetCharWidth()
0x105db1	4	_ZN14CGxFontAndroid13GetCharHeightEv	CGxFontAndroid::GetCharHeight()
0x105db5	14	GxFont_Platform_DeleteFontBufferPtr	GxFont_Platform_DeleteFontBufferPtr
0x105dc5	14	GxFont_Platform_DeleteFont	GxFont_Platform_DeleteFont
0x105dd5	44	_ZN17CGxSurfaceAndroidC2Ev	CGxSurfaceAndroid()
0x105e01	44	_ZN17CGxSurfaceAndroidC1Ev	CGxSurfaceAndroid()
0x105e2d	30	_ZN17CGxSurfaceAndroid6CreateEiiib	CGxSurfaceAndroid::Create()
0x105e4d	24	_ZN14CGxFontAndroidD2Ev	CGxFontAndroid()
0x105e65	24	_ZN14CGxFontAndroidD1Ev	CGxFontAndroid()
0x105e7d	68	_ZN14CGxFontAndroid13SetOutputModeEi	CGxFontAndroid::SetOutputMode()
0x105ec1	4	_ZN14CGxFontAndroid11SetEncodingEi	CGxFontAndroid::SetEncoding()
0x105ec5	48	GFA_CreateNexusFontClass	GFA_CreateNexusFontClass
0x105ef5	32	_ZN7_JNIEnv21CallStaticFloatMethodEP7_jclassP10_jmethodIDz	_JNIEnv::CallStaticFloatMethod()
0x105f15	32	_ZN7_JNIEnv23CallStaticBooleanMethodEP7_jclassP10_jmethodIDz	_JNIEnv::CallStaticBooleanMethod()
0x105f35	18	_ZN14CGxFontAndroidD0Ev	CGxFontAndroid()
0x105f49	32	_ZN7IGxFontD0Ev	IGxFont()
0x105f69	32	_ZN13IGxFontBufferD0Ev	IGxFontBuffer()
0x105f89	40	_ZN17CGxSurfaceAndroid6DeleteEv	CGxSurfaceAndroid::Delete()
0x105fb1	116	_ZN17CGxSurfaceAndroid7SetFromEPviiibbb	CGxSurfaceAndroid::SetFrom()
0x106025	44	_ZN17CGxSurfaceAndroidD1Ev	CGxSurfaceAndroid()
0x106051	18	_ZN17CGxSurfaceAndroidD0Ev	CGxSurfaceAndroid()
0x106065	44	_ZN17CGxSurfaceAndroidD2Ev	CGxSurfaceAndroid()
0x106091	376	_ZN17CGxSurfaceAndroid6ResizeEiii	CGxSurfaceAndroid::Resize()
0x106209	18	GxFont_Platform_CreateFontBufferPtr	GxFont_Platform_CreateFontBufferPtr
0x10621d	72	GFA_SetTextAlign	GFA_SetTextAlign
0x106265	72	GFA_SetColor	GFA_SetColor
0x1062ad	12	_ZN14CGxFontAndroid12SetTextColorEm	CGxFontAndroid::SetTextColor()
0x1062b9	72	GFA_ReleaseFont	GFA_ReleaseFont
0x106301	68	GFA_Release	GFA_Release
0x106345	72	GFA_SetAntiAlias	GFA_SetAntiAlias
0x10638d	72	GFA_SetLocale	GFA_SetLocale
0x1063d5	128	GFA_GetTextWidths	GFA_GetTextWidths
0x106455	72	GFA_IsInitialized	GFA_IsInitialized
0x10649d	132	GFA_GetPixels32	GFA_GetPixels32
0x106521	132	GFA_GetPixels16	GFA_GetPixels16
0x1065a5	68	GFA_GetStringLength	GFA_GetStringLength
0x1065e9	68	GFA_GetColor	GFA_GetColor
0x10662d	68	GFA_GetCurrentFont	GFA_GetCurrentFont
0x106671	68	GFA_CharHeight	GFA_CharHeight
0x1066b5	68	GFA_CharWidth	GFA_CharWidth
0x1066f9	68	GFA_GetDescent	GFA_GetDescent
0x10673d	68	GFA_GetAscent	GFA_GetAscent
0x106781	72	GFA_SetFont	GFA_SetFont
0x1067c9	128	GFA_CreateFont	GFA_CreateFont
0x106849	48	_ZN14CGxFontAndroid11SetFontFaceEPKc	CGxFontAndroid::SetFontFace()
0x106879	112	GFA_SetString	GFA_SetString
0x1068e9	120	GFA_SetStringEx	GFA_SetStringEx
0x106961	176	GFA_SetStringFromUnicode	GFA_SetStringFromUnicode
0x106a11	164	GFA_SetStringFromKSC5601	GFA_SetStringFromKSC5601
0x106ab5	100	GFA_InitString	GFA_InitString
0x106b19	216	GFA_MeasureText	GFA_MeasureText
0x106bf1	140	_ZN14CGxFontAndroid7MeasureEPKciiPiS2_	CGxFontAndroid::Measure()
0x106c7d	88	GFA_SetTextSize	GFA_SetTextSize
0x106cd5	16	_ZN14CGxFontAndroid11SetFontSizeEi	CGxFontAndroid::SetFontSize()
0x106ce5	102	_ZN14CGxFontAndroid6CreateEPKciP14GxFontCreateOp	CGxFontAndroid::Create()
0x106d4d	100	_ZN14CGxFontAndroidC1EPKciP14GxFontCreateOp	CGxFontAndroid()
0x106db1	30	GxFont_Platform_CreateFont	GxFont_Platform_CreateFont
0x106dd1	100	_ZN14CGxFontAndroidC2EPKciP14GxFontCreateOp	CGxFontAndroid()
0x106e35	284	GFA_DrawText	GFA_DrawText
0x106f51	256	_ZN14CGxFontAndroid4DrawEPKciiii	CGxFontAndroid::Draw()
0x107051	140	GFA_Init	GFA_Init
0x1070dd	52	GxFont_Platform_Init	GxFont_Platform_Init
0x107111	4	_ZN10CGxFrameT114SetEventTargetEP16CGxEventTargetT1	CGxFrameT1::SetEventTarget()
0x107115	20	_Z12GxGetFrameT1v	GxGetFrameT1()
0x107129	10	GcxGetMainScreenBuffer	GcxGetMainScreenBuffer
0x107135	10	GcxGetMainFrameBuffer	GcxGetMainFrameBuffer
0x107141	16	paintClet	paintClet
0x107151	48	destroyClet	destroyClet
0x107181	20	resumeClet	resumeClet
0x107195	20	pauseClet	pauseClet
0x1071a9	56	startClet	startClet
0x1071e1	140	handleCletEvent	handleCletEvent
0x10726d	52	_ZN10CGxFrameT17OnEventEiii	CGxFrameT1::OnEvent()
0x1072a1	228	GcxGetResourceID	GcxGetResourceID
0x107385	44	GcxDeleteResourceIDList	GcxDeleteResourceIDList
0x1073b1	72	GcxCreateResourceIDList	GcxCreateResourceIDList
0x1073f9	8	GcxFreeResData	GcxFreeResData
0x107401	74	GcxLoadResData	GcxLoadResData
0x10744d	60	_Z13Gcx_MM_StatesPjS_S_	Gcx_MM_States()
0x107489	52	_Z13DestroyMemoryv	DestroyMemory()
0x1074bd	40	_Z10RecalcUsedi	RecalcUsed()
0x1074e5	284	_Z23SetBlockTypeInformationP18_gxTSBlockTypeInfo	SetBlockTypeInformation()
0x107601	880	_Z11NewPtrSmalliP13_gxTSBlockHdr	NewPtrSmall()
0x107971	936	_Z12NewPtrMiddleiP13_gxTSBlockHdr	NewPtrMiddle()
0x107d19	516	_Z18DestroyBlockHeaderP13_gxTSBlockHdr	DestroyBlockHeader()
0x107f1d	624	_Z12DelPtrMiddlePvP13_gxTSBlockHdr	DelPtrMiddle()
0x10818d	580	_Z11DelPtrSmallPvP13_gxTSBlockHdr	DelPtrSmall()
0x1083d1	184	_Z11Gcx_MM_FreePv	Gcx_MM_Free()
0x108489	32	_Z16GetPtrHeaderSizei	GetPtrHeaderSize()
0x1084a9	232	_Z15FindWorstFitPtrii	FindWorstFitPtr()
0x108591	4	_Z14SendMemoryInfoPvii	SendMemoryInfo()
0x108595	4	_Z21SendMemoryInformationv	SendMemoryInformation()
0x108599	20	_Z22Gcx_MM_SetWindowHandlePv	Gcx_MM_SetWindowHandle()
0x1085ad	856	_Z17CreateBlockHeaderjj	CreateBlockHeader()
0x108905	492	_Z12Gcx_MM_Allocj	Gcx_MM_Alloc()
0x108af1	22	_Z13Gcx_MM_Callocj	Gcx_MM_Calloc()
0x108b09	112	_Z12CreateMemoryPvi	CreateMemory()
0x108b79	36	_Z11Gcx_MM_InitPvj	Gcx_MM_Init()
0x108b9d	300	_Z14Gcx_MM_ReallocPvj	Gcx_MM_Realloc()
0x108cc9	48	_Z13GcxCallbackDoP11TGXCALLBACK	GcxCallbackDo()
0x108cf9	68	_ZL15_CancelCallbackP11TGXCALLBACK	_ZL15_CancelCallbackP11TGXCALLBACK
0x108d3d	8	_ZN11CGxCallback6CancelEv	CGxCallback::Cancel()
0x108d45	12	_ZN11CGxCallbackD1Ev	CGxCallback()
0x108d51	12	_ZN11CGxCallbackD2Ev	CGxCallback()
0x108d5d	8	_ZNK11CGxCallback8IsQueuedEv	()
0x108d65	80	_ZN11CGxCallback3SetEv	CGxCallback::Set()
0x108db5	12	_ZN11CGxCallback3SetEPFvPvES0_	CGxCallback::Set()
0x108dc1	28	_ZN11CGxCallbackC1EPFvPvES0_	CGxCallback()
0x108ddd	28	_ZN11CGxCallbackC2EPFvPvES0_	CGxCallback()
0x108df9	268	_ZN16CGxEventTargetT17OnEventEiii	CGxEventTargetT1::OnEvent()
0x108f05	2	_ZN16CGxEventTargetT114EvPointerPressEP12GxPointerPos	CGxEventTargetT1::EvPointerPress()
0x108f09	2	_ZN16CGxEventTargetT116EvPointerReleaseEP12GxPointerPos	CGxEventTargetT1::EvPointerRelease()
0x108f0d	2	_ZN16CGxEventTargetT113EvPointerMoveEP12GxPointerPos	CGxEventTargetT1::EvPointerMove()
0x108f11	2	_ZN16CGxEventTargetT110EvAppStartEv	CGxEventTargetT1::EvAppStart()
0x108f15	2	_ZN16CGxEventTargetT19EvAppStopEv	CGxEventTargetT1::EvAppStop()
0x108f19	2	_ZN16CGxEventTargetT112EvAppSuspendEv	CGxEventTargetT1::EvAppSuspend()
0x108f1d	2	_ZN16CGxEventTargetT111EvAppResumeEv	CGxEventTargetT1::EvAppResume()
0x108f21	2	_ZN16CGxEventTargetT15EvKeyEi	CGxEventTargetT1::EvKey()
0x108f25	2	_ZN16CGxEventTargetT110EvKeyPressEi	CGxEventTargetT1::EvKeyPress()
0x108f29	2	_ZN16CGxEventTargetT112EvKeyReleaseEi	CGxEventTargetT1::EvKeyRelease()
0x108f2d	2	_ZN16CGxEventTargetT17EvPaintEv	CGxEventTargetT1::EvPaint()
0x108f31	4	_ZN16CGxEventTargetT112PreEventProcEiii	CGxEventTargetT1::PreEventProc()
0x108f35	4	_ZN16CGxEventTargetT112DefEventProcEiii	CGxEventTargetT1::DefEventProc()
0x108f39	18	_ZN16CGxEventTargetT117CancelEventTargetEv	CGxEventTargetT1::CancelEventTarget()
0x108f4d	20	_ZN16CGxEventTargetT114SetEventTargetEv	CGxEventTargetT1::SetEventTarget()
0x108f61	8	_ZdaPv	_ZdaPv
0x108f69	8	_ZdlPv	_ZdlPv
0x108f71	8	_Znaj	_Znaj
0x108f79	8	_Znwj	_Znwj
0x108f81	28	GxPostEvent	GxPostEvent
0x108f9d	10	GxSendEvent	GxSendEvent
0x108fa9	6	_ZNK8CGxTimer13GetExpirationEv	()
0x108fb1	22	_ZN8CGxTimer7OnTimerEv	CGxTimer::OnTimer()
0x108fc9	10	_ZN8CGxTimer7CBTimerEP8_MCTimerPS_	CGxTimer::CBTimer()
0x108fd5	28	_ZN8CGxTimer6CancelEv	CGxTimer::Cancel()
0x108ff1	12	_ZN8CGxTimerD1Ev	CGxTimer()
0x108ffd	12	_ZN8CGxTimerD2Ev	CGxTimer()
0x109009	36	_ZN8CGxTimer10SetRunLoopEjPFvPvES0_	CGxTimer::SetRunLoop()
0x10902d	50	_ZN8CGxTimer3SetEj	CGxTimer::Set()
0x109061	12	_ZN8CGxTimer3SetEjPFvPvES0_	CGxTimer::Set()
0x10906d	40	_ZN8CGxTimerC1EPFvPvES0_	CGxTimer()
0x109095	40	_ZN8CGxTimerC2EPFvPvES0_	CGxTimer()
0x1090bd	16	GxUncompress	GxUncompress
0x1090cd	74	GxUncompressZT1	GxUncompressZT1
0x109119	20	GxFont_GetCommonInfo	GxFont_GetCommonInfo
0x10912d	20	GxFont_GetDeviceCX	GxFont_GetDeviceCX
0x109141	20	GxFont_GetDeviceCY	GxFont_GetDeviceCY
0x109155	20	GxFont_GetScreenCX	GxFont_GetScreenCX
0x109169	20	GxFont_GetScreenCY	GxFont_GetScreenCY
0x10917d	100	GxFont_BaseInit	GxFont_BaseInit
0x1091e1	20	GxFont_SetLocale	GxFont_SetLocale
0x1091f5	20	GxFont_GetLocale	GxFont_GetLocale
0x109209	20	GxFont_GetScreenMode	GxFont_GetScreenMode
0x10921d	48	GxFont_SetScreenSize	GxFont_SetScreenSize
0x10924d	28	GxFont_SetDeviceSize	GxFont_SetDeviceSize
0x109269	76	GxFont_SetScreenMode	GxFont_SetScreenMode
0x1092b5	20	GxFont_SetBufferBPP	GxFont_SetBufferBPP
0x1092c9	20	GxFont_GetBufferBPP	GxFont_GetBufferBPP
0x1092dd	20	GxFont_SetColorkey	GxFont_SetColorkey
0x1092f1	20	GxFont_GetColorkey	GxFont_GetColorkey
0x109305	24	GxFont_SetAntiAlias	GxFont_SetAntiAlias
0x10931d	24	GxFont_IsAntiAlias	GxFont_IsAntiAlias
0x109335	356	GxFont_FontBufferToFrameBuffer_16_565_To_16_565	GxFont_FontBufferToFrameBuffer_16_565_To_16_565
0x109499	648	GxFont_FontBufferToFrameBuffer_32_8888_To_16_565_Alpha16	GxFont_FontBufferToFrameBuffer_32_8888_To_16_565_Alpha16
0x109721	480	GxFont_FontBufferToFrameBuffer_32_8888_To_16_565_Alpha256	GxFont_FontBufferToFrameBuffer_32_8888_To_16_565_Alpha256
0x109901	376	GxFont_FontBufferToFrameBuffer_32_8888_To_16_565	GxFont_FontBufferToFrameBuffer_32_8888_To_16_565
0x109a79	26	GxFont_WStrLen	GxFont_WStrLen
0x109a95	36	GxFont_DeleteFrameBuffer	GxFont_DeleteFrameBuffer
0x109ab9	40	GxFont_CreateFrameBuffer	GxFont_CreateFrameBuffer
0x109ae1	40	GxFont_GetFrameBuffer	GxFont_GetFrameBuffer
0x109b09	36	GxFont_DeleteFontBuffer	GxFont_DeleteFontBuffer
0x109b2d	72	GxFont_CreateFontBuffer	GxFont_CreateFontBuffer
0x109b75	40	GxFont_GetFontBuffer	GxFont_GetFontBuffer
0x109b9d	280	_Z7adler32mPKhj	adler32()
0x109cb5	78	_Z10uncompressPhPmS_m	uncompress()
0x109d05	8	_Z6zcfreePv	zcfree()
0x109d0d	10	_Z7zcallocjj	zcalloc()
0x109d19	136	_Z5KS2TGi	KS2TG()
0x109da1	10	_ZN9CGcxDIB16C2Ev	CGcxDIB16()
0x109dad	10	_ZN9CGcxDIB16C1Ev	CGcxDIB16()
0x109db9	200	_ZN9CGcxDIB1615SetBitmapHeaderEiii	CGcxDIB16::SetBitmapHeader()
0x109e81	40	_ZN9CGcxDIB1613GetBitmapDataEPh	CGcxDIB16::GetBitmapData()
0x109ea9	56	_ZN9CGcxDIB1617GetBitmapDataSizeEPh	CGcxDIB16::GetBitmapDataSize()
0x109ee1	32	_ZN9CGcxDIB1618GetBitmapDataPitchEPh	CGcxDIB16::GetBitmapDataPitch()
0x109f01	132	_ZN9CGcxDIB1615IsCorrectBitmapEi	CGcxDIB16::IsCorrectBitmap()
0x109f85	144	_ZN9CGcxDIB1611CheckRGB565Ev	CGcxDIB16::CheckRGB565()
0x10a015	8	_ZN8CGcxDIB8C2Ev	CGcxDIB8()
0x10a01d	8	_ZN8CGcxDIB8C1Ev	CGcxDIB8()
0x10a025	30	_ZNK8CGcxDIB816InfoBitmapLengthEv	()
0x10a045	32	_ZNK8CGcxDIB812InfoImagePosEv	()
0x10a065	16	_ZNK8CGcxDIB813GetPalettePtrEv	()
0x10a075	66	_ZNK8CGcxDIB813InfoImageSizeERiS0_	()
0x10a0b9	20	_ZNK8CGcxDIB812InfoBitCountEv	()
0x10a0cd	4	_ZNK8CGcxDIB88IsOwnnerEv	()
0x10a0d1	4	_ZN8CGcxDIB89SetOwnnerEb	CGcxDIB8::SetOwnner()
0x10a0d5	56	_ZNK8CGcxDIB814FindColorIndexEhhh	()
0x10a10d	14	_ZNK8CGcxDIB825FindTransparentColorIndexEv	()
0x10a11d	116	_ZNK8CGcxDIB817SimilarColorIndexEhhh	()
0x10a191	192	_ZN8CGcxDIB815SetBitmapHeaderEiii	CGcxDIB8::SetBitmapHeader()
0x10a251	136	_ZN8CGcxDIB815IsCorrectBitmapEi	CGcxDIB8::IsCorrectBitmap()
0x10a2d9	52	_ZN10CGcxBitmapC2Ev	CGcxBitmap()
0x10a30d	52	_ZN10CGcxBitmapC1Ev	CGcxBitmap()
0x10a341	36	_ZNK10CGcxBitmap7GetSizeERiS0_	()
0x10a365	18	_ZNK10CGcxBitmap9IsReallocEv	()
0x10a379	4	_ZN10CGcxBitmap7BltFastEiiiiii10enumDrawOPil	CGcxBitmap::BltFast()
0x10a37d	52	_ZN10CGcxBitmap14PutNativeImageEliiiiiih10enumDrawOPi	CGcxBitmap::PutNativeImage()
0x10a3b1	144	_ZN10CGcxBitmap3BltEiiiiii10enumDrawOPil	CGcxBitmap::Blt()
0x10a441	28	_ZN10CGcxBitmap13ReleaseBitmapEv	CGcxBitmap::ReleaseBitmap()
0x10a45d	32	_ZN10CGcxBitmapD1Ev	CGcxBitmap()
0x10a47d	32	_ZN10CGcxBitmapD2Ev	CGcxBitmap()
0x10a49d	32	_ZN8CGcxDIB87ReleaseEv	CGcxDIB8::Release()
0x10a4bd	36	_ZN8CGcxDIB89SetBitmapEib	CGcxDIB8::SetBitmap()
0x10a4e1	12	_ZN8CGcxDIB8D1Ev	CGcxDIB8()
0x10a4ed	12	_ZN8CGcxDIB8D2Ev	CGcxDIB8()
0x10a4f9	32	_ZN9CGcxDIB167ReleaseEv	CGcxDIB16::Release()
0x10a519	42	_ZN9CGcxDIB169SetBitmapEib	CGcxDIB16::SetBitmap()
0x10a545	12	_ZN9CGcxDIB16D1Ev	CGcxDIB16()
0x10a551	12	_ZN9CGcxDIB16D2Ev	CGcxDIB16()
0x10a55d	242	_ZN10CGcxBitmap11DecodeBMP16EPlii	CGcxBitmap::DecodeBMP16()
0x10a651	208	_ZN10CGcxBitmap13ConvertBitmapEib	CGcxBitmap::ConvertBitmap()
0x10a721	28	_ZN8CGcxDIB811GetFileSizeEv	CGcxDIB8::GetFileSize()
0x10a73d	30	_ZN8CGcxDIB811CopyPaletteEPKv	CGcxDIB8::CopyPalette()
0x10a75d	76	_ZN8CGcxDIB86CreateEiiPKv	CGcxDIB8::Create()
0x10a7a9	48	_ZN8CGcxDIB816CreateCompatibleEPKS_ii	CGcxDIB8::CreateCompatible()
0x10a7d9	18	_ZN10CGcxBitmapD0Ev	CGcxBitmap()
0x10a7ed	188	_Z24Collision2D_PolyBoxCheckiiiiiiiiii	Collision2D_PolyBoxCheck()
0x10a8a9	198	_Z26Collision2D_IntersectCheckiiiiiiii	Collision2D_IntersectCheck()
0x10a971	60	_Z6Randoml	Random()
0x10a9ad	38	_Z5Sqrtim	Sqrti()
0x10a9d5	20	_ZN8CGxBFont17SetBFontClassSizeEj	CGxBFont::SetBFontClassSize()
0x10a9e9	6	_ZN8CGxBFont17SkipDrawISO8859_1Eb	CGxBFont::SkipDrawISO8859_1()
0x10a9f1	4	_ZNK8CGxBFont11GetClipRectEv	()
0x10a9f5	22	_ZN8CGxBFont9SetVSpaceEi	CGxBFont::SetVSpace()
0x10aa0d	6	_ZNK8CGxBFont9GetVSpaceEv	()
0x10aa15	22	_ZN8CGxBFont9SetHSpaceEi	CGxBFont::SetHSpace()
0x10aa2d	6	_ZNK8CGxBFont9GetHSpaceEv	()
0x10aa35	6	_ZNK8CGxBFont13GetFontHeightEv	()
0x10aa3d	36	_ZN8CGxBFont10CombineHanEPKhi	CGxBFont::CombineHan()
0x10aa61	56	_ZN8CGxBFont8SetColorEj	CGxBFont::SetColor()
0x10aa99	50	_ZNK8CGxBFont8GetColorEv	()
0x10aacd	112	_ZN8CGxBFont10SetEngFontEPhi	CGxBFont::SetEngFont()
0x10ab3d	106	_ZN8CGxBFont17SetISO8859_1_FontEPhi	CGxBFont::SetISO8859_1_Font()
0x10aba9	68	_ZN8CGxBFont12SetExtraFontEPhi	CGxBFont::SetExtraFont()
0x10abed	4	_ZN8CGxBFont9SetParserEP14CGxBFontParser	CGxBFont::SetParser()
0x10abf1	78	_ZN8CGxBFont7SetFontEPKcMS_FbPhiE	CGxBFont::SetFont()
0x10ac41	384	_ZN8CGxBFont10SetHanFontEPhi	CGxBFont::SetHanFont()
0x10adc1	480	_ZN8CGxBFont8DrawFontEiiiiPKh	CGxBFont::DrawFont()
0x10afa1	48	_ZN8CGxBFont8DrawHan2Eiii	CGxBFont::DrawHan2()
0x10afd1	418	_ZN8CGxBFont27CalcDrawSize_ISO8859_1_OnlyEPKciPiS2_ib	CGxBFont::CalcDrawSize_ISO8859_1_Only()
0x10b175	880	_ZN8CGxBFont23DrawText_ISO8859_1_OnlyEPKciiiib	CGxBFont::DrawText_ISO8859_1_Only()
0x10b4e5	620	_ZN8CGxBFont12CalcDrawSizeEPKciPiS2_ibb	CGxBFont::CalcDrawSize()
0x10b751	752	_ZN8CGxBFont7DrawHanEiiiii	CGxBFont::DrawHan()
0x10ba41	1072	_ZN8CGxBFont8DrawTextEPKciiiibb	CGxBFont::DrawText()
0x10be71	12	_ZN8CGxBFont5resetEv	CGxBFont::reset()
0x10be7d	22	_ZN8CGxBFontC1Ev	CGxBFont()
0x10be95	22	_ZN8CGxBFontC2Ev	CGxBFont()
0x10bead	220	_ZN8CGxBFont11SetClipRectEPK7TGXRECT	CGxBFont::SetClipRect()
0x10bf89	86	_ZN8CGxBFont6DeleteEv	CGxBFont::Delete()
0x10bfe1	12	_ZN8CGxBFontD1Ev	CGxBFont()
0x10bfed	20	_Z13GxDeleteBFontP8CGxBFont	GxDeleteBFont()
0x10c001	12	_ZN8CGxBFontD2Ev	CGxBFont()
0x10c00d	384	_ZN8CGxBFont6CreateEPKcS1_S1_S1_	CGxBFont::Create()
0x10c18d	28	_ZN8CGxBFontnwEj	CGxBFont()
0x10c1a9	92	_Z13GxCreateBFontPKcS0_S0_RP8CGxBFontS0_	GxCreateBFont()
0x10c205	700	_Z26DrawFont_QuadRant_16_FALSEPPtiRjPKhRiS4_R7TGXRECTS4_S4_S4_S4_S4_S4_	DrawFont_QuadRant_16_FALSE()
0x10c4c1	978	_Z25DrawFont_QuadRant_16_TRUEPPtiRjPKhRiS4_R7TGXRECTS4_S4_S4_S4_S4_S4_	DrawFont_QuadRant_16_TRUE()
0x10c895	6	_ZN11CGxBFont_E111SetQuadRantEi	CGxBFont_E1::SetQuadRant()
0x10c89d	6	_ZN11CGxBFont_E111GetQuadRantEv	CGxBFont_E1::GetQuadRant()
0x10c8a5	76	_ZN8CGxBFont23SetDrawFontQuadRantFuncEihPFvPviS0_PKhRiS3_R7TGXRECTS3_S3_S3_S3_S3_S3_E	CGxBFont::SetDrawFontQuadRantFunc()
0x10c8f1	372	_ZN11CGxBFont_E18DrawFontEiiiiPKh	CGxBFont_E1::DrawFont()
0x10ca65	752	_ZN11CGxBFont_E17DrawHanEiiiii	CGxBFont_E1::DrawHan()
0x10cd55	96	_Z22DeletePitchLookUpTablei	DeletePitchLookUpTable()
0x10cdb5	200	_Z22CreatePitchLookUpTablei	CreatePitchLookUpTable()
0x10ce7d	84	_ZN8CGxBFont19SetPitchLookUpTableEiPv	CGxBFont::SetPitchLookUpTable()
0x10ced1	1422	_ZN11CGxBFont_E18DrawTextEPKciiiibb	CGxBFont_E1::DrawText()
0x10d461	10	_ZN11CGxBFont_E1nwEj	CGxBFont_E1()
0x10d46d	18	_ZN11CGxBFont_E1C1Ev	CGxBFont_E1()
0x10d481	18	_ZN11CGxBFont_E1C2Ev	CGxBFont_E1()
0x10d495	20	_Z16GxDeleteBFont_E1P11CGxBFont_E1	GxDeleteBFont_E1()
0x10d4a9	92	_Z16GxCreateBFont_E1PKcS0_S0_RP11CGxBFont_E1	GxCreateBFont_E1()
0x10d505	10	_ZN19CGxChangePaletteWRTC2Ev	CGxChangePaletteWRT()
0x10d511	10	_ZN19CGxChangePaletteWRTC1Ev	CGxChangePaletteWRT()
0x10d51d	30	_ZN19CGxChangePaletteWRT13ChangePaletteEi	CGxChangePaletteWRT::ChangePalette()
0x10d53d	98	_ZN19CGxChangePaletteWRT6DeleteEv	CGxChangePaletteWRT::Delete()
0x10d5a1	12	_ZN19CGxChangePaletteWRTD1Ev	CGxChangePaletteWRT()
0x10d5ad	12	_ZN19CGxChangePaletteWRTD2Ev	CGxChangePaletteWRT()
0x10d5b9	224	_ZN19CGxChangePaletteWRT9SetSourceEPKcjP9CGxPZDMgr	CGxChangePaletteWRT::SetSource()
0x10d699	420	_Z22DrawOP_ADD_Compress_16PtPhS_ii	DrawOP_ADD_Compress_16()
0x10d83d	656	_Z30DrawOP_ADD_ClippingCompress_16PtPhS_iiiiii	DrawOP_ADD_ClippingCompress_16()
0x10dacd	608	_Z26DrawOP_BLEND16_Compress_16PtPhS_ii	DrawOP_BLEND16_Compress_16()
0x10dd2d	700	_Z34DrawOP_BLEND16_ClippingCompress_16PtPhS_iiiiii	DrawOP_BLEND16_ClippingCompress_16()
0x10dfe9	1092	_Z34DrawOP_ENLARGE_ClippingCompress_16PtPhS_iiiiii	DrawOP_ENLARGE_ClippingCompress_16()
0x10e42d	684	_Z26DrawOP_ENLARGE_Compress_16PtPhS_ii	DrawOP_ENLARGE_Compress_16()
0x10e6d9	396	_Z23DrawOP_FLIP_Compress_16PtPhS_ii	DrawOP_FLIP_Compress_16()
0x10e865	700	_Z31DrawOP_FLIP_ClippingCompress_16PtPhS_iiiiii	DrawOP_FLIP_ClippingCompress_16()
0x10eb21	644	_Z29DrawOP_FLIPRGBADD_Compress_16PtPhS_iP18GxDrawFlipRGBAdd16	DrawOP_FLIPRGBADD_Compress_16()
0x10eda5	900	_Z37DrawOP_FLIPRGBADD_ClippingCompress_16PtPhS_iiiiiP18GxDrawFlipRGBAdd16	DrawOP_FLIPRGBADD_ClippingCompress_16()
0x10f129	2	_Z20DrawOP_FLIPRGBADD_16PtPhS_iP18GxDrawFlipRGBAdd16	DrawOP_FLIPRGBADD_16()
0x10f12d	1712	_Z30DrawOP_FLIPBLEND16_Compress_16PtPhS_iP18GxDrawFlipRGBAdd16	DrawOP_FLIPBLEND16_Compress_16()
0x10f7dd	1996	_Z38DrawOP_FLIPBLEND16_ClippingCompress_16PtPhS_iiiiiP18GxDrawFlipRGBAdd16	DrawOP_FLIPBLEND16_ClippingCompress_16()
0x10ffa9	2	_Z21DrawOP_FLIPBLEND16_16PtPhS_iP18GxDrawFlipRGBAdd16	DrawOP_FLIPBLEND16_16()
0x10ffad	140	_Z22DrawOP_RGB_Compress_16PtPhS_it	DrawOP_RGB_Compress_16()
0x110039	272	_Z30DrawOP_RGB_ClippingCompress_16PtPhS_iiiiit	DrawOP_RGB_ClippingCompress_16()
0x110149	188	_Z26DrawOP_RGBHALF_Compress_16PtPhS_it	DrawOP_RGBHALF_Compress_16()
0x110205	280	_Z34DrawOP_RGBHALF_ClippingCompress_16PtPhS_iiiiit	DrawOP_RGBHALF_ClippingCompress_16()
0x11031d	256	_Z12SetBlendFunc10enumDrawOPPv	SetBlendFunc()
0x11041d	536	_Z16SetZeroBlendFunc10enumDrawOPPvS0_	SetZeroBlendFunc()
0x110635	104	_Z19SetScreenEffectFunciPvS_	SetScreenEffectFunc()
0x11069d	2	_Z17dummy_funcBlendBLPvS_iiiiii	dummy_funcBlendBL()
0x1106a1	2	_Z15dummy_funcBlendPvS_iiiii	dummy_funcBlend()
0x1106a5	2	_Z17dummy_ZeroBlendBLPvPhPtii	dummy_ZeroBlendBL()
0x1106a9	2	_Z21dummy_ClipZeroBlendBLPvPhPtiiiiii	dummy_ClipZeroBlendBL()
0x1106ad	2	_Z15dummy_ZeroBlendPvPhPti	dummy_ZeroBlend()
0x1106b1	2	_Z19dummy_ClipZeroBlendPvPhPtiiiii	dummy_ClipZeroBlend()
0x1106b5	4776	_Z14PutCompressImgiiiiPhPt10enumDrawOPil	PutCompressImg()
0x11195d	12	_Z14GxGetScreenBPPv	GxGetScreenBPP()
0x111969	2040	_Z10DrawNativeliiiiii10enumDrawOPih	DrawNative()
0x112161	36	_Z12ClearFxTablev	ClearFxTable()
0x112185	344	_Z11MakeFxTablev	MakeFxTable()
0x1122dd	122	_Z14DrawOP_COPY_16PtS_iiiii	DrawOP_COPY_16()
0x112359	368	_Z13DrawOP_ADD_16PtS_iiiiii	DrawOP_ADD_16()
0x1124c9	424	_Z17DrawOP_BLEND16_16PtS_iiiiii	DrawOP_BLEND16_16()
0x112671	1652	_Z20Screen_RGBBLEND16_16Ptiiiii	Screen_RGBBLEND16_16()
0x112ce5	340	_Z23DrawOP_COPY_Compress_16PtPhS_i	DrawOP_COPY_Compress_16()
0x112e39	500	_Z31DrawOP_COPY_ClippingCompress_16PtPhS_iiiii	DrawOP_COPY_ClippingCompress_16()
0x11302d	1184	_Z17DrawOP_ENLARGE_16PtS_iiiiii	DrawOP_ENLARGE_16()
0x1134cd	1276	_Z19Screen_FADEOUT16_16Ptiiii	Screen_FADEOUT16_16()
0x1139c9	262	_Z14DrawOP_FLIP_16PtS_iiiiii	DrawOP_FLIP_16()
0x113ad1	92	_Z13DrawOP_RGB_16PtS_iiiiii	DrawOP_RGB_16()
0x113b2d	116	_Z17DrawOP_RGBHALF_16PtS_iiiiii	DrawOP_RGBHALF_16()
0x113ba1	4	_ZN15CGxEffectPZDMgr15CloneEffectInfoEb	CGxEffectPZDMgr::CloneEffectInfo()
0x113ba5	26	_ZN15CGxEffectPZDMgr5CloseEv	CGxEffectPZDMgr::Close()
0x113bc1	312	_ZN15CGxEffectPZDMgr17FindEffectedImageEtli	CGxEffectPZDMgr::FindEffectedImage()
0x113cf9	320	_ZN17CGxEffectExPZDMgr17FindEffectedImageEtli	CGxEffectExPZDMgr::FindEffectedImage()
0x113e39	68	_ZN15CGxPointerArrayI17tagEffectedBitmapE6ResizeEi	CGxPointerArray()
0x113e7d	154	_ZN17CGxEffectExPZDMgr21AddNewEFFECTED_BITMAPEtP12CGxPZxBitmapli	CGxEffectExPZDMgr::AddNewEFFECTED_BITMAP()
0x113f19	144	_ZN15CGxEffectPZDMgr21AddNewEFFECTED_BITMAPEtP12CGxPZxBitmapli	CGxEffectPZDMgr::AddNewEFFECTED_BITMAP()
0x113fa9	38	_ZN17CGxEffectExPZDMgr21DeleteEFFECTED_BITMAPEP17tagEffectedBitmap	CGxEffectExPZDMgr::DeleteEFFECTED_BITMAP()
0x113fd1	38	_ZN15CGxEffectPZDMgr21DeleteEFFECTED_BITMAPEP17tagEffectedBitmap	CGxEffectPZDMgr::DeleteEFFECTED_BITMAP()
0x113ff9	220	_ZN17CGxEffectExPZDMgr9LoadImageEtliPsS0_i	CGxEffectExPZDMgr::LoadImage()
0x1140d5	76	_ZN15CGxPointerArrayI17tagEffectedBitmapE7DestroyEv	CGxPointerArray()
0x114121	224	_ZN15CGxEffectPZDMgr9LoadImageEtliPsS0_i	CGxEffectPZDMgr::LoadImage()
0x114201	74	_ZN15CGxEffectPZDMgr4OpenEv	CGxEffectPZDMgr::Open()
0x11424d	60	_ZN15CGxEffectPZDMgr14SetMPLResourceEP14CGxPZxResource	CGxEffectPZDMgr::SetMPLResource()
0x114289	66	_ZN15CGxEffectPZDMgr12SetMPLSourceEPKcjb	CGxEffectPZDMgr::SetMPLSource()
0x1142cd	74	_ZN15CGxEffectPZDMgr11SetResourceEP14CGxPZxResource	CGxEffectPZDMgr::SetResource()
0x114319	88	_ZN15CGxEffectPZDMgr9SetSourceEPKcjb	CGxEffectPZDMgr::SetSource()
0x114371	106	_ZN15CGxEffectPZDMgr15ClearImageTableEb	CGxEffectPZDMgr::ClearImageTable()
0x1143dd	42	_ZN15CGxEffectPZDMgr16DeleteImageTableEv	CGxEffectPZDMgr::DeleteImageTable()
0x114409	26	_ZN15CGxEffectPZDMgr11ForceDeleteEv	CGxEffectPZDMgr::ForceDelete()
0x114425	40	_ZN15CGxEffectPZDMgrD1Ev	CGxEffectPZDMgr()
0x11444d	18	_ZN15CGxEffectPZDMgrD0Ev	CGxEffectPZDMgr()
0x114461	40	_ZN15CGxEffectPZDMgrD2Ev	CGxEffectPZDMgr()
0x114489	40	_ZN17CGxEffectExPZDMgrD1Ev	CGxEffectExPZDMgr()
0x1144b1	18	_ZN17CGxEffectExPZDMgrD0Ev	CGxEffectExPZDMgr()
0x1144c5	40	_ZN17CGxEffectExPZDMgrD2Ev	CGxEffectExPZDMgr()
0x1144ed	48	_ZN15CGxEffectPZDMgrC1Eh	CGxEffectPZDMgr()
0x11451d	48	_ZN15CGxEffectPZDMgrC2Eh	CGxEffectPZDMgr()
0x11454d	48	_ZN15CGxEffectPZDMgrC1Ev	CGxEffectPZDMgr()
0x11457d	18	_Z24GXPZDMGR_PM_PARAM_EFFECTv	GXPZDMGR_PM_PARAM_EFFECT()
0x114591	48	_ZN15CGxEffectPZDMgrC2Ev	CGxEffectPZDMgr()
0x1145c1	44	_ZN17CGxEffectExPZDMgrC1Eh	CGxEffectExPZDMgr()
0x1145ed	44	_ZN17CGxEffectExPZDMgrC2Eh	CGxEffectExPZDMgr()
0x114619	44	_ZN17CGxEffectExPZDMgrC1Ev	CGxEffectExPZDMgr()
0x114645	18	_Z26GXPZDMGR_PM_PARAM_EFFECTEXv	GXPZDMGR_PM_PARAM_EFFECTEX()
0x114659	44	_ZN17CGxEffectExPZDMgrC2Ev	CGxEffectExPZDMgr()
0x114685	64	_ZN17CGxEffectExPZFMgr11SetResourceEP14CGxPZxResource	CGxEffectExPZFMgr::SetResource()
0x1146c5	78	_ZN17CGxEffectExPZFMgr9SetSourceEPKcjb	CGxEffectExPZFMgr::SetSource()
0x114715	232	_ZN17CGxEffectExPZFMgr9LoadFrameEtP9CGxPZDMgrP9tagEffectPsS4_	CGxEffectExPZFMgr::LoadFrame()
0x1147fd	216	_ZN15CGxEffectPZFMgr9LoadFrameEtP9CGxPZDMgrP9tagEffectPsS4_	CGxEffectPZFMgr::LoadFrame()
0x1148d5	40	_ZN15CGxEffectPZFMgrD1Ev	CGxEffectPZFMgr()
0x1148fd	18	_ZN15CGxEffectPZFMgrD0Ev	CGxEffectPZFMgr()
0x114911	40	_ZN15CGxEffectPZFMgrD2Ev	CGxEffectPZFMgr()
0x114939	40	_ZN17CGxEffectExPZFMgrD1Ev	CGxEffectExPZFMgr()
0x114961	18	_ZN17CGxEffectExPZFMgrD0Ev	CGxEffectExPZFMgr()
0x114975	40	_ZN17CGxEffectExPZFMgrD2Ev	CGxEffectExPZFMgr()
0x11499d	36	_ZN15CGxEffectPZFMgrC1Eh	CGxEffectPZFMgr()
0x1149c1	36	_ZN15CGxEffectPZFMgrC2Eh	CGxEffectPZFMgr()
0x1149e5	36	_ZN15CGxEffectPZFMgrC1Ev	CGxEffectPZFMgr()
0x114a09	18	_Z24GXPZFMGR_PM_PARAM_EFFECTv	GXPZFMGR_PM_PARAM_EFFECT()
0x114a1d	36	_ZN15CGxEffectPZFMgrC2Ev	CGxEffectPZFMgr()
0x114a41	36	_ZN17CGxEffectExPZFMgrC1Eh	CGxEffectExPZFMgr()
0x114a65	36	_ZN17CGxEffectExPZFMgrC2Eh	CGxEffectExPZFMgr()
0x114a89	36	_ZN17CGxEffectExPZFMgrC1Ev	CGxEffectExPZFMgr()
0x114aad	18	_Z26GXPZFMGR_PM_PARAM_EFFECTEXv	GXPZFMGR_PM_PARAM_EFFECTEX()
0x114ac1	36	_ZN17CGxEffectExPZFMgrC2Ev	CGxEffectExPZFMgr()
0x114ae5	356	_Z21Screen_FADEOUT16_Realiiiii	Screen_FADEOUT16_Real()
0x114c49	16	_Z21Screen_FADEOUT32_Realiiiii	Screen_FADEOUT32_Real()
0x114c59	4	_ZN6CGxMPL15GetContentsTypeEv	CGxMPL::GetContentsType()
0x114c5d	24	_ZN6CGxMPL21GetTotalContentsCountEv	CGxMPL::GetTotalContentsCount()
0x114c75	28	_ZN6CGxMPL5CloseEv	CGxMPL::Close()
0x114c91	42	_ZN6CGxMPL12CreateParserEv	CGxMPL::CreateParser()
0x114cbd	32	_ZN6CGxMPLD1Ev	CGxMPL()
0x114cdd	18	_ZN6CGxMPLD0Ev	CGxMPL()
0x114cf1	32	_ZN6CGxMPLD2Ev	CGxMPL()
0x114d11	36	_ZN6CGxMPLC1Ev	CGxMPL()
0x114d35	144	_ZN6CGxMPL13ChangePaletteEPKcjP9CGxPZDMgri	CGxMPL::ChangePalette()
0x114dc5	36	_ZN6CGxMPLC2Ev	CGxMPL()
0x114de9	12	_ZN9CGxStream4ReadEPvj	CGxStream::Read()
0x114df5	94	_ZN12CGxMPLParser11DeleteCHPALEPP16tagChangePalette	CGxMPLParser::DeleteCHPAL()
0x114e55	156	_ZN12CGxMPLParser19GetChangeAllPaletteEi	CGxMPLParser::GetChangeAllPalette()
0x114ef1	34	_ZN12CGxMPLParser5CloseEv	CGxMPLParser::Close()
0x114f15	32	_ZN12CGxMPLParserD1Ev	CGxMPLParser()
0x114f35	18	_ZN12CGxMPLParserD0Ev	CGxMPLParser()
0x114f49	32	_ZN12CGxMPLParserD2Ev	CGxMPLParser()
0x114f69	44	_ZN12CGxMPLParserC1Ev	CGxMPLParser()
0x114f95	44	_ZN12CGxMPLParserC2Ev	CGxMPLParser()
0x114fc1	16	_ZN9CGxStream4SeekEli.clone.0	CGxStream::Seek()
0x114fd1	598	_ZN12CGxMPLParser16GetChangePaletteEii	CGxMPLParser::GetChangePalette()
0x115229	120	_ZN12CGxMPLParser4OpenEv	CGxMPLParser::Open()
0x1152a1	12	_ZN12CGxPalette1610InitializeEv	CGxPalette16::Initialize()
0x1152ad	30	_ZN12CGxPalette1610SetPaletteEiib	CGxPalette16::SetPalette()
0x1152cd	4	_ZN12CGxPalette16cviEv	CGxPalette16()
0x1152d1	4	_ZN12CGxPalette16cvPtEv	CGxPalette16()
0x1152d5	54	_ZN12CGxPalette1611CopyPaletteEii	CGxPalette16::CopyPalette()
0x11530d	14	_ZN12CGxPalette1611CopyPaletteEPS_	CGxPalette16::CopyPalette()
0x11531d	28	_ZN12CGxPalette1613DeletePaletteEv	CGxPalette16::DeletePalette()
0x115339	8	_ZN12CGxPalette1611ForceDeleteEv	CGxPalette16::ForceDelete()
0x115341	40	_ZN12CGxPalette16D1Ev	CGxPalette16()
0x115369	18	_ZN12CGxPalette16D0Ev	CGxPalette16()
0x11537d	40	_ZN12CGxPalette16D2Ev	CGxPalette16()
0x1153a5	56	_ZN12CGxPalette16C1Ei	CGxPalette16()
0x1153dd	56	_ZN12CGxPalette16C2Ei	CGxPalette16()
0x115415	52	_ZN12CGxPalette16C1Eii	CGxPalette16()
0x115449	52	_ZN12CGxPalette16C2Eii	CGxPalette16()
0x11547d	52	_ZN12CGxPalette16C1ERKS_	CGxPalette16()
0x1154b1	52	_ZN12CGxPalette16C2ERKS_	CGxPalette16()
0x1154e5	40	_ZN12CGxPalette16C1Ev	CGxPalette16()
0x11550d	40	_ZN12CGxPalette16C2Ev	CGxPalette16()
0x115535	4	_ZN6CGxPZA15GetContentsTypeEv	CGxPZA::GetContentsType()
0x115539	14	_ZN6CGxPZA21GetTotalContentsCountEv	CGxPZA::GetTotalContentsCount()
0x115549	24	_ZN6CGxPZA16GetAniFrameIndexEii	CGxPZA::GetAniFrameIndex()
0x115561	28	_ZN6CGxPZA23CreateAniFrameIndexInfoEv	CGxPZA::CreateAniFrameIndexInfo()
0x11557d	80	_ZN6CGxPZA23DeleteAniFrameIndexInfoEv	CGxPZA::DeleteAniFrameIndexInfo()
0x1155cd	78	_ZN6CGxPZA19CreateAniFrameIndexEiP9CGxPZxAnii	CGxPZA::CreateAniFrameIndex()
0x11561d	36	_ZN6CGxPZA12GetAnimationEi	CGxPZA::GetAnimation()
0x115641	42	_ZN6CGxPZA5CloseEv	CGxPZA::Close()
0x11566d	36	_ZN6CGxPZA4OpenEv	CGxPZA::Open()
0x115691	42	_ZN6CGxPZA12CreateParserEv	CGxPZA::CreateParser()
0x1156bd	56	_ZN6CGxPZAD1Ev	CGxPZA()
0x1156f5	18	_ZN6CGxPZAD0Ev	CGxPZA()
0x115709	56	_ZN6CGxPZAD2Ev	CGxPZA()
0x115741	52	_ZN6CGxPZAC1Ev	CGxPZA()
0x115775	52	_ZN6CGxPZAC2Ev	CGxPZA()
0x1157a9	80	_ZN9CGxPZAMgr14ForceDeleteAniEPP9CGxPZxAni	CGxPZAMgr::ForceDeleteAni()
0x1157f9	80	_ZN9CGxPZAMgr14ChangeAniFrameEiP9CGxPZFMgr	CGxPZAMgr::ChangeAniFrame()
0x115849	40	_ZN9CGxPZAMgr17ChangeAniFrameAllEP9CGxPZFMgr	CGxPZAMgr::ChangeAniFrameAll()
0x115871	36	_ZN9CGxPZAMgr17ClearAllANICLIPExEPS_	CGxPZAMgr::ClearAllANICLIPEx()
0x115895	220	_ZN9CGxPZAMgr9LoadAniExEtP9CGxPZFMgrP13CGxPZDPackage	CGxPZAMgr::LoadAniEx()
0x115971	96	_ZN9CGxPZAMgr12LoadAniAllExEP9CGxPZFMgrP13CGxPZDPackage	CGxPZAMgr::LoadAniAllEx()
0x1159d1	208	_ZN9CGxPZAMgr7LoadAniEtP9CGxPZFMgrP9CGxPZDMgr	CGxPZAMgr::LoadAni()
0x115aa1	96	_ZN9CGxPZAMgr10LoadAniAllEP9CGxPZFMgrP9CGxPZDMgr	CGxPZAMgr::LoadAniAll()
0x115b01	60	_ZN9CGxPZAMgr10ReleaseAniEPP9CGxPZxAni	CGxPZAMgr::ReleaseAni()
0x115b3d	78	_ZN9CGxPZAMgr13ClearAniTableEb	CGxPZAMgr::ClearAniTable()
0x115b8d	106	_ZN9CGxPZAMgr13ReleaseAniAllEPPP9CGxPZxAni	CGxPZAMgr::ReleaseAniAll()
0x115bf9	84	_ZN9CGxPZAMgr4OpenEv	CGxPZAMgr::Open()
0x115c4d	64	_ZN9CGxPZAMgr11SetResourceEP14CGxPZxResource	CGxPZAMgr::SetResource()
0x115c8d	78	_ZN9CGxPZAMgr9SetSourceEPKcjb	CGxPZAMgr::SetSource()
0x115cdd	30	_ZN9CGxPZAMgr14DeleteAniTableEv	CGxPZAMgr::DeleteAniTable()
0x115cfd	38	_ZN9CGxPZAMgr11ForceDeleteEv	CGxPZAMgr::ForceDelete()
0x115d25	40	_ZN9CGxPZAMgrD1Ev	CGxPZAMgr()
0x115d4d	18	_ZN9CGxPZAMgrD0Ev	CGxPZAMgr()
0x115d61	40	_ZN9CGxPZAMgrD2Ev	CGxPZAMgr()
0x115d89	44	_ZN9CGxPZAMgrC1Eh	CGxPZAMgr()
0x115db5	44	_ZN9CGxPZAMgrC2Eh	CGxPZAMgr()
0x115de1	44	_ZN9CGxPZAMgrC1Ev	CGxPZAMgr()
0x115e0d	44	_ZN9CGxPZAMgrC2Ev	CGxPZAMgr()
0x115e39	46	_ZN12CGxPZAParser5CloseEv	CGxPZAParser::Close()
0x115e69	44	_ZN12CGxPZAParserD1Ev	CGxPZAParser()
0x115e95	18	_ZN12CGxPZAParserD0Ev	CGxPZAParser()
0x115ea9	44	_ZN12CGxPZAParserD2Ev	CGxPZAParser()
0x115ed5	52	_ZN12CGxPZAParserC1Ev	CGxPZAParser()
0x115f09	52	_ZN12CGxPZAParserC2Ev	CGxPZAParser()
0x115f3d	152	_ZN12CGxPZAParser12DecodeHeaderEb	CGxPZAParser::DecodeHeader()
0x115fd5	112	_ZN12CGxPZAParser4OpenEv	CGxPZAParser::Open()
0x116045	548	_ZN12CGxPZAParser19DecodeAnimationDataEti	CGxPZAParser::DecodeAnimationData()
0x116269	12	_ZN6CGxPZD10GetPaletteERi	CGxPZD::GetPalette()
0x116275	4	_ZN6CGxPZD15GetContentsTypeEv	CGxPZD::GetContentsType()
0x116279	14	_ZN6CGxPZD21GetTotalContentsCountEv	CGxPZD::GetTotalContentsCount()
0x116289	2	_ZN6CGxPZD13SetMPLPaletteEi	CGxPZD::SetMPLPalette()
0x11628d	2	_ZN6CGxPZD21SetEffectPaletteClassEP6CGxMPL	CGxPZD::SetEffectPaletteClass()
0x116291	52	_Z21GXPZX_CallHookImageCBP12CGxPZxBitmap	GXPZX_CallHookImageCB()
0x1162c5	82	_ZN6CGxPZD13ConvertBitmapEP11CGxPZxDIB16i	CGxPZD::ConvertBitmap()
0x116319	88	_ZN6CGxPZD13ConvertBitmapEP10CGxPZxDIB8i	CGxPZD::ConvertBitmap()
0x116371	156	_ZN6CGxPZD9GetBitmapEiP9tagEffectPsS2_i	CGxPZD::GetBitmap()
0x11640d	112	_ZN6CGxPZD8GetDIB16Ei	CGxPZD::GetDIB16()
0x11647d	342	_ZN6CGxPZD7GetDIB8Ei	CGxPZD::GetDIB8()
0x1165d5	28	_ZN6CGxPZD5CloseEv	CGxPZD::Close()
0x1165f1	28	_ZN6CGxPZD4OpenEv	CGxPZD::Open()
0x11660d	42	_ZN6CGxPZD12CreateParserEv	CGxPZD::CreateParser()
0x116639	36	_ZN6CGxPZDD1Ev	CGxPZD()
0x11665d	18	_ZN6CGxPZDD0Ev	CGxPZD()
0x116671	36	_ZN6CGxPZDD2Ev	CGxPZD()
0x116695	40	_ZN6CGxPZDC1Ev	CGxPZD()
0x1166bd	40	_ZN6CGxPZDC2Ev	CGxPZD()
0x1166e5	2	_ZN9CGxPZDMgr15CloneEffectInfoEb	CGxPZDMgr::CloneEffectInfo()
0x1166e9	40	_ZN9CGxPZDMgr11ForceDeleteEv	CGxPZDMgr::ForceDelete()
0x116711	12	_ZN9CGxPZDMgr5CloseEv	CGxPZDMgr::Close()
0x11671d	78	_ZN9CGxPZDMgr9LoadImageEtliPsS0_i	CGxPZDMgr::LoadImage()
0x11676d	100	_ZN9CGxPZDMgr12LoadImageAllEv	CGxPZDMgr::LoadImageAll()
0x1167d1	80	_ZN9CGxPZDMgr16ForceDeleteImageEPP12CGxPZxBitmap	CGxPZDMgr::ForceDeleteImage()
0x116821	4	_ZN9CGxPZDMgr12SetMPLSourceEPKcjb	CGxPZDMgr::SetMPLSource()
0x116825	4	_ZN9CGxPZDMgr14SetMPLResourceEP14CGxPZxResource	CGxPZDMgr::SetMPLResource()
0x116829	62	_ZN9CGxPZDMgr12ReleaseImageEPP12CGxPZxBitmap	CGxPZDMgr::ReleaseImage()
0x116869	80	_ZN9CGxPZDMgr15ClearImageTableEb	CGxPZDMgr::ClearImageTable()
0x1168b9	112	_ZN9CGxPZDMgr15ReleaseImageAllEPPP12CGxPZxBitmap	CGxPZDMgr::ReleaseImageAll()
0x116929	70	_ZN9CGxPZDMgr4OpenEv	CGxPZDMgr::Open()
0x116971	74	_ZN9CGxPZDMgr11SetResourceEP14CGxPZxResource	CGxPZDMgr::SetResource()
0x1169bd	88	_ZN9CGxPZDMgr9SetSourceEPKcjb	CGxPZDMgr::SetSource()
0x116a15	32	_ZN9CGxPZDMgr16DeleteImageTableEv	CGxPZDMgr::DeleteImageTable()
0x116a35	40	_ZN9CGxPZDMgrD1Ev	CGxPZDMgr()
0x116a5d	18	_ZN9CGxPZDMgrD0Ev	CGxPZDMgr()
0x116a71	40	_ZN9CGxPZDMgrD2Ev	CGxPZDMgr()
0x116a99	48	_ZN9CGxPZDMgrC1Eh	CGxPZDMgr()
0x116ac9	48	_ZN9CGxPZDMgrC2Eh	CGxPZDMgr()
0x116af9	48	_ZN9CGxPZDMgrC1Ev	CGxPZDMgr()
0x116b29	18	_Z24GXPZDMGR_PM_PARAM_NORMALv	GXPZDMGR_PM_PARAM_NORMAL()
0x116b3d	48	_ZN9CGxPZDMgrC2Ev	CGxPZDMgr()
0x116b6d	74	_ZN12CGxPZDParser19UpdateBitmapPaletteEv	CGxPZDParser::UpdateBitmapPalette()
0x116bb9	198	_ZN12CGxPZDParser10SetPaletteElib	CGxPZDParser::SetPalette()
0x116c81	94	_ZN12CGxPZDParser5CloseEv	CGxPZDParser::Close()
0x116ce1	48	_ZN12CGxPZDParserD1Ev	CGxPZDParser()
0x116d11	18	_ZN12CGxPZDParserD0Ev	CGxPZDParser()
0x116d25	48	_ZN12CGxPZDParserD2Ev	CGxPZDParser()
0x116d55	88	_ZN12CGxPZDParserC1Ev	CGxPZDParser()
0x116dad	88	_ZN12CGxPZDParserC2Ev	CGxPZDParser()
0x116e05	140	_ZN12CGxPZDParser12DecodeHeaderEb	CGxPZDParser::DecodeHeader()
0x116e91	108	_ZN12CGxPZDParser11ReadPaletteERiS0_Rb	CGxPZDParser::ReadPalette()
0x116efd	270	_ZN12CGxPZDParser15DecodeImageDataEtP12tagImageInfo	CGxPZDParser::DecodeImageData()
0x11700d	172	_ZN12CGxPZDParser4OpenEv	CGxPZDParser::Open()
0x1170b9	4	_ZN6CGxPZF15GetContentsTypeEv	CGxPZF::GetContentsType()
0x1170bd	14	_ZN6CGxPZF21GetTotalContentsCountEv	CGxPZF::GetTotalContentsCount()
0x1170cd	26	_ZN6CGxPZF16GetSubFrameIndexEii	CGxPZF::GetSubFrameIndex()
0x1170e9	42	_ZN14CGxEffectExPZF12CreateParserEv	CGxEffectExPZF::CreateParser()
0x117115	42	_ZN16CGxZeroEffectPZF12CreateParserEv	CGxZeroEffectPZF::CreateParser()
0x117141	30	_ZN6CGxPZF23CreateSubFrameIndexInfoEv	CGxPZF::CreateSubFrameIndexInfo()
0x117161	82	_ZN6CGxPZF23DeleteSubFrameIndexInfoEv	CGxPZF::DeleteSubFrameIndexInfo()
0x1171b5	80	_ZN6CGxPZF19CreateSubFrameIndexEiP11CGxPZxFramei	CGxPZF::CreateSubFrameIndex()
0x117205	40	_ZN6CGxPZF8GetFrameEi	CGxPZF::GetFrame()
0x11722d	62	_ZN6CGxPZF5CloseEv	CGxPZF::Close()
0x11726d	56	_ZN6CGxPZF4OpenEv	CGxPZF::Open()
0x1172a5	42	_ZN6CGxPZF12CreateParserEv	CGxPZF::CreateParser()
0x1172d1	72	_ZN6CGxPZFD1Ev	CGxPZF()
0x117319	18	_ZN6CGxPZFD0Ev	CGxPZF()
0x11732d	72	_ZN6CGxPZFD2Ev	CGxPZF()
0x117375	32	_ZN14CGxEffectExPZFD1Ev	CGxEffectExPZF()
0x117395	18	_ZN14CGxEffectExPZFD0Ev	CGxEffectExPZF()
0x1173a9	32	_ZN14CGxEffectExPZFD2Ev	CGxEffectExPZF()
0x1173c9	32	_ZN16CGxZeroEffectPZFD1Ev	CGxZeroEffectPZF()
0x1173e9	18	_ZN16CGxZeroEffectPZFD0Ev	CGxZeroEffectPZF()
0x1173fd	32	_ZN16CGxZeroEffectPZFD2Ev	CGxZeroEffectPZF()
0x11741d	56	_ZN6CGxPZFC1Ev	CGxPZF()
0x117455	56	_ZN6CGxPZFC2Ev	CGxPZF()
0x11748d	32	_ZN14CGxEffectExPZFC1Ev	CGxEffectExPZF()
0x1174ad	32	_ZN14CGxEffectExPZFC2Ev	CGxEffectExPZF()
0x1174cd	32	_ZN16CGxZeroEffectPZFC1Ev	CGxZeroEffectPZF()
0x1174ed	32	_ZN16CGxZeroEffectPZFC2Ev	CGxZeroEffectPZF()
0x11750d	80	_ZN9CGxPZFMgr16ForceDeleteFrameEPP11CGxPZxFrame	CGxPZFMgr::ForceDeleteFrame()
0x11755d	96	_ZN9CGxPZFMgr12LoadFrameAllEP9CGxPZDMgr	CGxPZFMgr::LoadFrameAll()
0x1175bd	44	_ZN9CGxPZFMgr15ChangeModuleAllEP9CGxPZDMgr	CGxPZFMgr::ChangeModuleAll()
0x1175e9	162	_ZN9CGxPZFMgr12ChangeModuleEiP9CGxPZDMgr	CGxPZFMgr::ChangeModule()
0x11768d	60	_ZN9CGxPZFMgr12ReleaseFrameEPP11CGxPZxFrame	CGxPZFMgr::ReleaseFrame()
0x1176c9	78	_ZN9CGxPZFMgr15ClearFrameTableEb	CGxPZFMgr::ClearFrameTable()
0x117719	256	_ZN9CGxPZFMgr11LoadFrameExEtP13CGxPZDPackageP9tagEffectPsS4_	CGxPZFMgr::LoadFrameEx()
0x117819	92	_ZN9CGxPZFMgr14LoadFrameAllExEP13CGxPZDPackage	CGxPZFMgr::LoadFrameAllEx()
0x117875	204	_ZN9CGxPZFMgr9LoadFrameEtP9CGxPZDMgrP9tagEffectPsS4_	CGxPZFMgr::LoadFrame()
0x117941	106	_ZN9CGxPZFMgr15ReleaseFrameAllEPPP11CGxPZxFrame	CGxPZFMgr::ReleaseFrameAll()
0x1179ad	84	_ZN9CGxPZFMgr4OpenEv	CGxPZFMgr::Open()
0x117a01	64	_ZN9CGxPZFMgr11SetResourceEP14CGxPZxResource	CGxPZFMgr::SetResource()
0x117a41	78	_ZN9CGxPZFMgr9SetSourceEPKcjb	CGxPZFMgr::SetSource()
0x117a91	30	_ZN9CGxPZFMgr16DeleteFrameTableEv	CGxPZFMgr::DeleteFrameTable()
0x117ab1	38	_ZN9CGxPZFMgr11ForceDeleteEv	CGxPZFMgr::ForceDelete()
0x117ad9	40	_ZN9CGxPZFMgrD1Ev	CGxPZFMgr()
0x117b01	18	_ZN9CGxPZFMgrD0Ev	CGxPZFMgr()
0x117b15	40	_ZN9CGxPZFMgrD2Ev	CGxPZFMgr()
0x117b3d	44	_ZN9CGxPZFMgrC1Eh	CGxPZFMgr()
0x117b69	20	_Z28GXPZFMGR_PM_PARAM_PZDPACKAGEv	GXPZFMGR_PM_PARAM_PZDPACKAGE()
0x117b7d	44	_ZN9CGxPZFMgrC2Eh	CGxPZFMgr()
0x117ba9	44	_ZN9CGxPZFMgrC1Ev	CGxPZFMgr()
0x117bd5	18	_Z25GXPZFMGR_PM_PARAM_ZEROPALv	GXPZFMGR_PM_PARAM_ZEROPAL()
0x117be9	18	_Z22GXPZFMGR_PM_PARAM_ZEROv	GXPZFMGR_PM_PARAM_ZERO()
0x117bfd	18	_Z27GXPZFMGR_PM_PARAM_REGIONPALv	GXPZFMGR_PM_PARAM_REGIONPAL()
0x117c11	18	_Z24GXPZFMGR_PM_PARAM_REGIONv	GXPZFMGR_PM_PARAM_REGION()
0x117c25	18	_Z24GXPZFMGR_PM_PARAM_NORMALv	GXPZFMGR_PM_PARAM_NORMAL()
0x117c39	44	_ZN9CGxPZFMgrC2Ev	CGxPZFMgr()
0x117c65	4	_ZN12CGxPZFParser11GetAttCountEh	CGxPZFParser::GetAttCount()
0x117c69	6	_ZN12CGxPZFParser11GetDamCountEh	CGxPZFParser::GetDamCount()
0x117c71	326	_ZN12CGxPZFParser24DecodeBoundingBoxFromBAREP9CGxStreamPhPP13CGxPZxFrameBB	CGxPZFParser::DecodeBoundingBoxFromBAR()
0x117db9	264	_ZN20CGxEffectExPZFParser15DecodeFrameDataEtll	CGxEffectExPZFParser::DecodeFrameData()
0x117ec1	266	_ZN12CGxPZFParser15DecodeFrameDataEtll	CGxPZFParser::DecodeFrameData()
0x117fcd	38	_ZN20CGxEffectExPZFParser8NewFrameEb	CGxEffectExPZFParser::NewFrame()
0x117ff5	38	_ZN22CGxZeroEffectPZFParser8NewFrameEb	CGxZeroEffectPZFParser::NewFrame()
0x11801d	36	_ZN12CGxPZFParser8NewFrameEb	CGxPZFParser::NewFrame()
0x118041	182	_ZN12CGxPZFParser24UncompressAllDataFromBAREP9CGxStreamRj	CGxPZFParser::UncompressAllDataFromBAR()
0x1180f9	46	_ZN12CGxPZFParser5CloseEv	CGxPZFParser::Close()
0x118129	44	_ZN12CGxPZFParserD1Ev	CGxPZFParser()
0x118155	18	_ZN12CGxPZFParserD0Ev	CGxPZFParser()
0x118169	44	_ZN12CGxPZFParserD2Ev	CGxPZFParser()
0x118195	32	_ZN20CGxEffectExPZFParserD1Ev	CGxEffectExPZFParser()
0x1181b5	18	_ZN20CGxEffectExPZFParserD0Ev	CGxEffectExPZFParser()
0x1181c9	32	_ZN20CGxEffectExPZFParserD2Ev	CGxEffectExPZFParser()
0x1181e9	32	_ZN22CGxZeroEffectPZFParserD1Ev	CGxZeroEffectPZFParser()
0x118209	18	_ZN22CGxZeroEffectPZFParserD0Ev	CGxZeroEffectPZFParser()
0x11821d	32	_ZN22CGxZeroEffectPZFParserD2Ev	CGxZeroEffectPZFParser()
0x11823d	68	_ZN12CGxPZFParserC1Ev	CGxPZFParser()
0x118281	68	_ZN12CGxPZFParserC2Ev	CGxPZFParser()
0x1182c5	36	_ZN20CGxEffectExPZFParserC1Ev	CGxEffectExPZFParser()
0x1182e9	36	_ZN20CGxEffectExPZFParserC2Ev	CGxEffectExPZFParser()
0x11830d	32	_ZN22CGxZeroEffectPZFParserC1Ev	CGxZeroEffectPZFParser()
0x11832d	32	_ZN22CGxZeroEffectPZFParserC2Ev	CGxZeroEffectPZFParser()
0x11834d	410	_ZN20CGxEffectExPZFParser21EndDecodeFrameFromBAREP9CGxStreamiPP11CGxPZxFramell	CGxEffectExPZFParser::EndDecodeFrameFromBAR()
0x1184e9	378	_ZN12CGxPZFParser25DecodeBoundingBoxFromFILEEP9CGxStreamPhPP13CGxPZxFrameBB	CGxPZFParser::DecodeBoundingBoxFromFILE()
0x118665	256	_ZN12CGxPZFParser21EndDecodeFrameFromBAREP9CGxStreamiPP11CGxPZxFramell	CGxPZFParser::EndDecodeFrameFromBAR()
0x118765	302	_ZN12CGxPZFParser22EndDecodeFrameFromFILEEP9CGxStreamiPP11CGxPZxFramell	CGxPZFParser::EndDecodeFrameFromFILE()
0x118895	452	_ZN20CGxEffectExPZFParser22EndDecodeFrameFromFILEEP9CGxStreamiPP11CGxPZxFramell	CGxEffectExPZFParser::EndDecodeFrameFromFILE()
0x118a59	180	_ZN12CGxPZFParser12DecodeHeaderEb	CGxPZFParser::DecodeHeader()
0x118b0d	124	_ZN12CGxPZFParser25UncompressAllDataFromFILEEP9CGxStreamRj	CGxPZFParser::UncompressAllDataFromFILE()
0x118b89	112	_ZN12CGxPZFParser4OpenEv	CGxPZFParser::Open()
0x118bf9	320	_ZN20CGxEffectExPZFParser16BeginDecodeFrameEtP9CGxStreamPiPhll	CGxEffectExPZFParser::BeginDecodeFrame()
0x118d39	328	_ZN12CGxPZFParser16BeginDecodeFrameEtP9CGxStreamPiPhll	CGxPZFParser::BeginDecodeFrame()
0x118e81	12	_ZN9CGxPZxAni4InitEv	CGxPZxAni::Init()
0x118e8d	76	_ZN9CGxPZxAni15CalcRelationPosERsS0_10enumDrawOPi	CGxPZxAni::CalcRelationPos()
0x118ed9	126	_ZN9CGxPZxAni4DrawEii10enumDrawOPil	CGxPZxAni::Draw()
0x118f59	126	_ZN9CGxPZxAni8DrawFastEii10enumDrawOPil	CGxPZxAni::DrawFast()
0x118fd9	60	_ZN9CGxPZxAni18SetCurrentFramePosEi	CGxPZxAni::SetCurrentFramePos()
0x119015	46	_ZN9CGxPZxAni4PlayEb	CGxPZxAni::Play()
0x119045	36	_ZN9CGxPZxAni4StopEb	CGxPZxAni::Stop()
0x119069	32	_ZN9CGxPZxAni5PauseEb	CGxPZxAni::Pause()
0x119089	142	_ZN9CGxPZxAni6DoPlayEv	CGxPZxAni::DoPlay()
0x119119	56	_ZN9CGxPZxAni28GetCurrentPlayFrameScreenPosERiS0_	CGxPZxAni::GetCurrentPlayFrameScreenPos()
0x119151	84	_ZN9CGxPZxAni23GetCurrentPlayFrameRectEiiR7TGXRECT10enumDrawOPi	CGxPZxAni::GetCurrentPlayFrameRect()
0x1191a5	4	_ZN9CGxPZxAni18GetAniFrameCountMeEi	CGxPZxAni::GetAniFrameCountMe()
0x1191a9	6	_ZN9CGxPZxAni19GetAniFrameCountOppEi	CGxPZxAni::GetAniFrameCountOpp()
0x1191b1	6	_ZN9CGxPZxAni18GetCollisionResultEi	CGxPZxAni::GetCollisionResult()
0x1191b9	36	_ZN9CGxPZxAni18SetCurrentDelayPosEi	CGxPZxAni::SetCurrentDelayPos()
0x1191dd	58	_ZN9CGxPZxAni25GetCurrentDelayFrameCountEv	CGxPZxAni::GetCurrentDelayFrameCount()
0x119219	62	_ZN9CGxPZxAni23GetTotalDelayFrameCountEv	CGxPZxAni::GetTotalDelayFrameCount()
0x119259	82	_ZN9CGxPZxAni9IntersectEPS_iiiit	CGxPZxAni::Intersect()
0x1192ad	64	_ZN9CGxPZxAni15CollisionDetectEPS_iiP7TGXRECTt	CGxPZxAni::CollisionDetect()
0x1192ed	138	_ZN9CGxPZxAni15CollisionDetectEPS_iiS0_iit	CGxPZxAni::CollisionDetect()
0x119379	70	_ZN9CGxPZxAni20DeleteDuplicateArrayEPPPS_i	CGxPZxAni::DeleteDuplicateArray()
0x1193c1	42	_ZN9CGxPZxAni13DeleteAniClipEl	CGxPZxAni::DeleteAniClip()
0x1193ed	94	_ZN9CGxPZxAni11ForceDeleteEv	CGxPZxAni::ForceDelete()
0x11944d	44	_ZN9CGxPZxAni13CreateAniClipEv	CGxPZxAni::CreateAniClip()
0x119479	40	_ZN9CGxPZxAniD1Ev	CGxPZxAni()
0x1194a1	18	_ZN9CGxPZxAniD0Ev	CGxPZxAni()
0x1194b5	40	_ZN9CGxPZxAniD2Ev	CGxPZxAni()
0x1194dd	52	_ZN9CGxPZxAniC1Eb	CGxPZxAni()
0x119511	52	_ZN9CGxPZxAniC2Eb	CGxPZxAni()
0x119545	48	_ZN9CGxPZxAniC1El	CGxPZxAni()
0x119575	48	_ZN9CGxPZxAniC2El	CGxPZxAni()
0x1195a5	76	_ZN9CGxPZxAniC1EPS_b	CGxPZxAni()
0x1195f1	60	_ZN9CGxPZxAni11DuplicateExEi	CGxPZxAni::DuplicateEx()
0x11962d	76	_ZN9CGxPZxAniC2EPS_b	CGxPZxAni()
0x119679	40	_ZN9CGxPZxAniC1Ev	CGxPZxAni()
0x1196a1	40	_ZN9CGxPZxAniC2Ev	CGxPZxAni()
0x1196c9	32	_ZN10CGxPZxBaseC2Ev	CGxPZxBase()
0x1196e9	32	_ZN10CGxPZxBaseC1Ev	CGxPZxBase()
0x119709	4	_ZN10CGxPZxBase12CreateParserEv	CGxPZxBase::CreateParser()
0x11970d	36	_ZN10CGxPZxBase5CloseEv	CGxPZxBase::Close()
0x119731	68	_ZN10CGxPZxBase11SetResourceEP14CGxPZxResourceb	CGxPZxBase::SetResource()
0x119775	60	_ZN10CGxPZxBaseD1Ev	CGxPZxBase()
0x1197b1	60	_ZN10CGxPZxBaseD2Ev	CGxPZxBase()
0x1197ed	60	_ZN10CGxPZxBase4OpenEv	CGxPZxBase::Open()
0x119829	96	_ZN10CGxPZxBase9SetSourceEPKcjb	CGxPZxBase::SetSource()
0x119889	18	_ZN10CGxPZxBaseD0Ev	CGxPZxBase()
0x11989d	38	_ZN12CGxPZxBitmap4DrawEii10enumDrawOPil	CGxPZxBitmap::Draw()
0x1198c5	38	_ZN12CGxPZxBitmap8DrawFastEii10enumDrawOPil	CGxPZxBitmap::DrawFast()
0x1198ed	6	_ZN12CGxPZxBitmap8GetPixelEii	CGxPZxBitmap::GetPixel()
0x1198f5	6	_ZNK12CGxPZxBitmap8GetWidthEv	()
0x1198fd	6	_ZNK12CGxPZxBitmap9GetHeightEv	()
0x119905	36	_ZN12CGxPZxBitmap7BltFastEiiiiii10enumDrawOPil	CGxPZxBitmap::BltFast()
0x119929	36	_ZN12CGxPZxBitmap3BltEiiiiii10enumDrawOPil	CGxPZxBitmap::Blt()
0x11994d	8	_ZNK12CGxPZxBitmap7GetSizeERiS0_	()
0x119954	20	_ZThn16_N12CGxPZxBitmapD1Ev	_ZThn16_N12CGxPZxBitmapD1Ev
0x119969	48	_ZN12CGxPZxBitmapD1Ev	CGxPZxBitmap()
0x119998	20	_ZThn16_N12CGxPZxBitmapD0Ev	_ZThn16_N12CGxPZxBitmapD0Ev
0x1199ad	18	_ZN12CGxPZxBitmapD0Ev	CGxPZxBitmap()
0x1199c1	48	_ZN12CGxPZxBitmapD2Ev	CGxPZxBitmap()
0x1199f1	56	_ZN12CGxPZxBitmapC1Ev	CGxPZxBitmap()
0x119a29	56	_ZN12CGxPZxBitmapC2Ev	CGxPZxBitmap()
0x119a61	236	_ZN10CGxPZxDIB815SetBitmapHeaderEPhiii	CGxPZxDIB8::SetBitmapHeader()
0x119b4d	164	_ZN10CGxPZxDIB815IsCorrectBitmapEPh	CGxPZxDIB8::IsCorrectBitmap()
0x119bf1	38	_ZN10CGxPZxDIB815CreateTemporaryEiii	CGxPZxDIB8::CreateTemporary()
0x119c19	28	_ZN10CGxPZxDIB811CopyPaletteEPKvi	CGxPZxDIB8::CopyPalette()
0x119c35	124	_ZN10CGxPZxDIB86CreateEiiliili	CGxPZxDIB8::Create()
0x119cb1	96	_ZN10CGxPZxDIB816CreateCompatibleEPK8CGcxDIB8ii	CGxPZxDIB8::CreateCompatible()
0x119d11	96	_ZN10CGxPZxDIB810MakeBitmapEiiliiii	CGxPZxDIB8::MakeBitmap()
0x119d71	84	_ZN11CGxPZxDIB166CreateEiili	CGxPZxDIB16::Create()
0x119dc5	12	_ZN11CGxPZxDIB16D1Ev	CGxPZxDIB16()
0x119dd1	12	_ZN11CGxPZxDIB16D2Ev	CGxPZxDIB16()
0x119ddd	12	_ZN11CGxPZxDIB16C1Ev	CGxPZxDIB16()
0x119de9	12	_ZN11CGxPZxDIB16C2Ev	CGxPZxDIB16()
0x119df5	34	_ZN10CGxPZxDIB89SetBitmapEib	CGxPZxDIB8::SetBitmap()
0x119e19	12	_ZN10CGxPZxDIB8D1Ev	CGxPZxDIB8()
0x119e25	12	_ZN10CGxPZxDIB8D2Ev	CGxPZxDIB8()
0x119e31	12	_ZN10CGxPZxDIB8C1Ev	CGxPZxDIB8()
0x119e3d	12	_ZN10CGxPZxDIB8C2Ev	CGxPZxDIB8()
0x119e49	152	_ZN11CGxPZxFrame20ChangeDepthCFunctionEb	CGxPZxFrame::ChangeDepthCFunction()
0x119ee1	1100	_ZN11CGxPZxFrame4DrawEii10enumDrawOPil	CGxPZxFrame::Draw()
0x11a32d	106	_ZN11CGxPZxFrame8DrawFastEii10enumDrawOPil	CGxPZxFrame::DrawFast()
0x11a399	264	_ZN11CGxPZxFrame13CalcFrameRectEv	CGxPZxFrame::CalcFrameRect()
0x11a4a1	182	_ZN11CGxPZxFrame17GetFrameScreenPosERiS0_10enumDrawOPi	CGxPZxFrame::GetFrameScreenPos()
0x11a559	240	_ZN11CGxPZxFrame18GetFrameScreenRectEiiR7TGXRECT10enumDrawOPi	CGxPZxFrame::GetFrameScreenRect()
0x11a649	4	_ZN11CGxPZxFrame18IsExistBoundingBoxEv	CGxPZxFrame::IsExistBoundingBox()
0x11a64d	72	_ZN11CGxPZxFrame10GetDepthC0Ev	CGxPZxFrame::GetDepthC0()
0x11a695	54	_ZN11CGxPZxFrame10GetDepthC1Ev	CGxPZxFrame::GetDepthC1()
0x11a6cd	30	_ZN11CGxPZxFrame10GetDepthC2Ev	CGxPZxFrame::GetDepthC2()
0x11a6ed	24	_ZN11CGxPZxFrame10GetDepthC3Ev	CGxPZxFrame::GetDepthC3()
0x11a705	10	_ZN11CGxPZxFrame10GetDepthC4Ev	CGxPZxFrame::GetDepthC4()
0x11a711	72	_ZN11CGxPZxFrame13GetDepthC0_EXEv	CGxPZxFrame::GetDepthC0_EX()
0x11a759	54	_ZN11CGxPZxFrame13GetDepthC1_EXEv	CGxPZxFrame::GetDepthC1_EX()
0x11a791	30	_ZN11CGxPZxFrame13GetDepthC2_EXEv	CGxPZxFrame::GetDepthC2_EX()
0x11a7b1	24	_ZN11CGxPZxFrame13GetDepthC3_EXEv	CGxPZxFrame::GetDepthC3_EX()
0x11a7c9	10	_ZN11CGxPZxFrame13GetDepthC4_EXEv	CGxPZxFrame::GetDepthC4_EX()
0x11a7d5	180	_ZN11CGxPZxFrame8GetPixelEii	CGxPZxFrame::GetPixel()
0x11a889	184	_ZN21CGxPZxZeroEffectFrame8GetPixelEii	CGxPZxZeroEffectFrame::GetPixel()
0x11a941	98	_Z13HasFlipEffectlih	HasFlipEffect()
0x11a9a5	1234	_ZN19CGxPZxEffectExFrame6__DrawEP11CGxPZxFrameii10enumDrawOPil	CGxPZxEffectExFrame::__Draw()
0x11ae79	20	_ZN19CGxPZxEffectExFrame4DrawEii10enumDrawOPil	CGxPZxEffectExFrame::Draw()
0x11ae8d	106	_ZN19CGxPZxEffectExFrame10__DrawFastEP11CGxPZxFrameii10enumDrawOPil	CGxPZxEffectExFrame::__DrawFast()
0x11aef9	20	_ZN19CGxPZxEffectExFrame8DrawFastEii10enumDrawOPil	CGxPZxEffectExFrame::DrawFast()
0x11af0d	264	_ZN19CGxPZxEffectExFrame15__CalcFrameRectEP11CGxPZxFrame	CGxPZxEffectExFrame::__CalcFrameRect()
0x11b015	8	_ZN19CGxPZxEffectExFrame13CalcFrameRectEv	CGxPZxEffectExFrame::CalcFrameRect()
0x11b01d	184	_ZN19CGxPZxEffectExFrame8GetPixelEii	CGxPZxEffectExFrame::GetPixel()
0x11b0d5	84	_ZN19CGxPZxEffectExFrame13__ForceDeleteEP11CGxPZxFrame	CGxPZxEffectExFrame::__ForceDelete()
0x11b129	8	_ZN19CGxPZxEffectExFrame11ForceDeleteEv	CGxPZxEffectExFrame::ForceDelete()
0x11b131	84	_ZN11CGxPZxFrame11ForceDeleteEv	CGxPZxFrame::ForceDelete()
0x11b185	30	_ZN11CGxPZxFrame19GetBoundingBoxCountEi	CGxPZxFrame::GetBoundingBoxCount()
0x11b1a5	48	_ZN11CGxPZxFrame14GetBoundingBoxEii	CGxPZxFrame::GetBoundingBox()
0x11b1d5	64	_ZN11CGxPZxFrame9IntersectEPS_iiiit	CGxPZxFrame::Intersect()
0x11b215	56	_ZN11CGxPZxFrame15CollisionDetectEPS_iiP7TGXRECTt	CGxPZxFrame::CollisionDetect()
0x11b24d	76	_ZN11CGxPZxFrame15CollisionDetectEPS_iiS0_iit	CGxPZxFrame::CollisionDetect()
0x11b299	40	_ZN11CGxPZxFrameD1Ev	CGxPZxFrame()
0x11b2c1	18	_ZN11CGxPZxFrameD0Ev	CGxPZxFrame()
0x11b2d5	40	_ZN11CGxPZxFrameD2Ev	CGxPZxFrame()
0x11b2fd	40	_ZN19CGxPZxEffectExFrameD1Ev	CGxPZxEffectExFrame()
0x11b325	18	_ZN19CGxPZxEffectExFrameD0Ev	CGxPZxEffectExFrame()
0x11b339	40	_ZN19CGxPZxEffectExFrameD2Ev	CGxPZxEffectExFrame()
0x11b361	40	_ZN21CGxPZxZeroEffectFrameD1Ev	CGxPZxZeroEffectFrame()
0x11b389	18	_ZN21CGxPZxZeroEffectFrameD0Ev	CGxPZxZeroEffectFrame()
0x11b39d	40	_ZN21CGxPZxZeroEffectFrameD2Ev	CGxPZxZeroEffectFrame()
0x11b3c5	56	_ZN11CGxPZxFrameC1Ev	CGxPZxFrame()
0x11b3fd	56	_ZN11CGxPZxFrameC2Ev	CGxPZxFrame()
0x11b435	40	_ZN19CGxPZxEffectExFrameC1Ev	CGxPZxEffectExFrame()
0x11b45d	40	_ZN19CGxPZxEffectExFrameC2Ev	CGxPZxEffectExFrame()
0x11b485	32	_ZN21CGxPZxZeroEffectFrameC1Ev	CGxPZxZeroEffectFrame()
0x11b4a5	32	_ZN21CGxPZxZeroEffectFrameC2Ev	CGxPZxZeroEffectFrame()
0x11b4c5	4	_ZN13CGxPZxFrameBB18IsExistBoundingBoxEv	CGxPZxFrameBB::IsExistBoundingBox()
0x11b4c9	184	_ZN23CGxPZxZeroEffectFrameBB8GetPixelEii	CGxPZxZeroEffectFrameBB::GetPixel()
0x11b581	184	_ZN21CGxPZxEffectExFrameBB8GetPixelEii	CGxPZxEffectExFrameBB::GetPixel()
0x11b639	8	_ZN21CGxPZxEffectExFrameBB13CalcFrameRectEv	CGxPZxEffectExFrameBB::CalcFrameRect()
0x11b641	20	_ZN21CGxPZxEffectExFrameBB8DrawFastEii10enumDrawOPil	CGxPZxEffectExFrameBB::DrawFast()
0x11b655	20	_ZN21CGxPZxEffectExFrameBB4DrawEii10enumDrawOPil	CGxPZxEffectExFrameBB::Draw()
0x11b669	8	_ZN21CGxPZxEffectExFrameBB11ForceDeleteEv	CGxPZxEffectExFrameBB::ForceDelete()
0x11b671	64	_ZN13CGxPZxFrameBB24GetTotalBoundingBoxCountEv	CGxPZxFrameBB::GetTotalBoundingBoxCount()
0x11b6b1	24	_ZN13CGxPZxFrameBB22GetReferencePointCountEv	CGxPZxFrameBB::GetReferencePointCount()
0x11b6c9	62	_ZN13CGxPZxFrameBB17GetReferencePointEi	CGxPZxFrameBB::GetReferencePoint()
0x11b709	84	_ZN13CGxPZxFrameBB19GetBoundingBoxCountEi	CGxPZxFrameBB::GetBoundingBoxCount()
0x11b75d	312	_ZN13CGxPZxFrameBB14GetBoundingBoxEii	CGxPZxFrameBB::GetBoundingBox()
0x11b895	234	_ZN13CGxPZxFrameBB9IntersectEPS_iiiit	CGxPZxFrameBB::Intersect()
0x11b981	240	_ZN13CGxPZxFrameBB15CollisionDetectEPS_iiP7TGXRECTt	CGxPZxFrameBB::CollisionDetect()
0x11ba71	524	_ZN13CGxPZxFrameBB15CollisionDetectEPS_iiS0_iit	CGxPZxFrameBB::CollisionDetect()
0x11bc7d	268	_ZN13CGxPZxFrameBB6DrawBBEiil	CGxPZxFrameBB::DrawBB()
0x11bd89	34	_ZN13CGxPZxFrameBB11ForceDeleteEv	CGxPZxFrameBB::ForceDelete()
0x11bdad	40	_ZN13CGxPZxFrameBBD1Ev	CGxPZxFrameBB()
0x11bdd5	18	_ZN13CGxPZxFrameBBD0Ev	CGxPZxFrameBB()
0x11bde9	40	_ZN13CGxPZxFrameBBD2Ev	CGxPZxFrameBB()
0x11be11	40	_ZN21CGxPZxEffectExFrameBBD1Ev	CGxPZxEffectExFrameBB()
0x11be39	18	_ZN21CGxPZxEffectExFrameBBD0Ev	CGxPZxEffectExFrameBB()
0x11be4d	40	_ZN21CGxPZxEffectExFrameBBD2Ev	CGxPZxEffectExFrameBB()
0x11be75	40	_ZN23CGxPZxZeroEffectFrameBBD1Ev	CGxPZxZeroEffectFrameBB()
0x11be9d	18	_ZN23CGxPZxZeroEffectFrameBBD0Ev	CGxPZxZeroEffectFrameBB()
0x11beb1	40	_ZN23CGxPZxZeroEffectFrameBBD2Ev	CGxPZxZeroEffectFrameBB()
0x11bed9	48	_ZN13CGxPZxFrameBBC1Ev	CGxPZxFrameBB()
0x11bf09	48	_ZN13CGxPZxFrameBBC2Ev	CGxPZxFrameBB()
0x11bf39	40	_ZN21CGxPZxEffectExFrameBBC1Ev	CGxPZxEffectExFrameBB()
0x11bf61	40	_ZN21CGxPZxEffectExFrameBBC2Ev	CGxPZxEffectExFrameBB()
0x11bf89	32	_ZN23CGxPZxZeroEffectFrameBBC1Ev	CGxPZxZeroEffectFrameBB()
0x11bfa9	32	_ZN23CGxPZxZeroEffectFrameBBC2Ev	CGxPZxZeroEffectFrameBB()
0x11bfc9	12	_ZN9CGxPZxMgr12SetMPLSourceEPKcjb	CGxPZxMgr::SetMPLSource()
0x11bfd5	12	_ZN9CGxPZxMgr14SetMPLResourceEP14CGxPZxResource	CGxPZxMgr::SetMPLResource()
0x11bfe1	14	_ZN9CGxPZxMgr13SetMPLPaletteEi	CGxPZxMgr::SetMPLPalette()
0x11bff1	12	_ZN9CGxPZxMgr12SetParameterEhPFP9CGxPZDMgrvEPFP9CGxPZFMgrvE	CGxPZxMgr::SetParameter()
0x11bffd	38	_ZN9CGxPZxMgr19SetPZDPackageSourceEP9CGxPZDMgr	CGxPZxMgr::SetPZDPackageSource()
0x11c025	32	_ZN9CGxPZxMgr19SetPZDPackageSourceEP13CGxPZDPackage	CGxPZxMgr::SetPZDPackageSource()
0x11c045	30	_ZN9CGxPZxMgr9SetPZAMgrEP9CGxPZAMgr	CGxPZxMgr::SetPZAMgr()
0x11c065	30	_ZN9CGxPZxMgr9SetPZFMgrEP9CGxPZFMgr	CGxPZxMgr::SetPZFMgr()
0x11c085	30	_ZN9CGxPZxMgr9SetPZDMgrEP9CGxPZDMgr	CGxPZxMgr::SetPZDMgr()
0x11c0a5	124	_ZN9CGxPZxMgr5CloseEv	CGxPZxMgr::Close()
0x11c121	80	_ZN9CGxPZxMgr11ForceDeleteEv	CGxPZxMgr::ForceDelete()
0x11c171	100	_ZN9CGxPZxMgr4OpenEv	CGxPZxMgr::Open()
0x11c1d5	466	_ZN9CGxPZxMgr9SetSourceEPKcjb	CGxPZxMgr::SetSource()
0x11c3a9	40	_ZN9CGxPZxMgrD1Ev	CGxPZxMgr()
0x11c3d1	18	_ZN9CGxPZxMgrD0Ev	CGxPZxMgr()
0x11c3e5	40	_ZN9CGxPZxMgrD2Ev	CGxPZxMgr()
0x11c40d	72	_ZN9CGxPZxMgrC1Ev	CGxPZxMgr()
0x11c455	72	_ZN9CGxPZxMgrC2Ev	CGxPZxMgr()
0x11c49d	36	_ZN16CGxPZxParserBaseC2Ev	CGxPZxParserBase()
0x11c4c1	36	_ZN16CGxPZxParserBaseC1Ev	CGxPZxParserBase()
0x11c4e5	92	_ZN16CGxPZxParserBase12CheckPZxTypeEP12tagPZxHeaderP9CGxStreamiPKci	CGxPZxParserBase::CheckPZxType()
0x11c541	18	_ZN16CGxPZxParserBase17MoveTopIndexTableEv	CGxPZxParserBase::MoveTopIndexTable()
0x11c555	58	_ZN16CGxPZxParserBase14SeekIndexTableEt	CGxPZxParserBase::SeekIndexTable()
0x11c591	74	_ZN16CGxPZxParserBase13ReleaseStreamEv	CGxPZxParserBase::ReleaseStream()
0x11c5dd	62	_ZN16CGxPZxParserBase11SetResourceEP14CGxPZxResourceb	CGxPZxParserBase::SetResource()
0x11c61d	36	_ZN16CGxPZxParserBaseD1Ev	CGxPZxParserBase()
0x11c641	18	_ZN16CGxPZxParserBaseD0Ev	CGxPZxParserBase()
0x11c655	36	_ZN16CGxPZxParserBaseD2Ev	CGxPZxParserBase()
0x11c679	46	_ZN16CGxPZxParserBase4OpenEv	CGxPZxParserBase::Open()
0x11c6a9	42	_ZN16CGxPZxParserBase5CloseEv	CGxPZxParserBase::Close()
0x11c6d5	96	_ZN14CGxPZxResource14DetachResourceEv	CGxPZxResource::DetachResource()
0x11c735	24	_ZN14CGxPZxResource11ForceDeleteEv	CGxPZxResource::ForceDelete()
0x11c74d	304	_ZN14CGxPZxResource14AttachResourceEv	CGxPZxResource::AttachResource()
0x11c87d	52	_ZN14CGxPZxResource9SetSourceEPKci	CGxPZxResource::SetSource()
0x11c8b1	40	_ZN14CGxPZxResourceD1Ev	CGxPZxResource()
0x11c8d9	18	_ZN14CGxPZxResourceD0Ev	CGxPZxResource()
0x11c8ed	40	_ZN14CGxPZxResourceD2Ev	CGxPZxResource()
0x11c915	44	_ZN14CGxPZxResourceC1Ev	CGxPZxResource()
0x11c941	44	_ZN14CGxPZxResourceC2Ev	CGxPZxResource()
0x11c96d	54	_ZN10CGxPZxZero6CreateEiiihb	CGxPZxZero::Create()
0x11c9a5	180	_ZN10CGxPZxZero8GetPixelEii	CGxPZxZero::GetPixel()
0x11ca59	32	_ZN10CGxPZxZero12SetPalette16EP12CGxPalette16	CGxPZxZero::SetPalette16()
0x11ca79	42	_ZN10CGxPZxZero12SetPalette16Eihb	CGxPZxZero::SetPalette16()
0x11caa4	20	_ZThn16_N10CGxPZxZero11ForceDeleteEv	_ZThn16_N10CGxPZxZero11ForceDeleteEv
0x11cab9	36	_ZN10CGxPZxZero11ForceDeleteEv	CGxPZxZero::ForceDelete()
0x11cadc	20	_ZThn16_N10CGxPZxZeroD1Ev	_ZThn16_N10CGxPZxZeroD1Ev
0x11caf1	44	_ZN10CGxPZxZeroD1Ev	CGxPZxZero()
0x11cb1c	20	_ZThn16_N10CGxPZxZeroD0Ev	_ZThn16_N10CGxPZxZeroD0Ev
0x11cb31	18	_ZN10CGxPZxZeroD0Ev	CGxPZxZero()
0x11cb45	44	_ZN10CGxPZxZeroD2Ev	CGxPZxZero()
0x11cb71	60	_ZN10CGxPZxZeroC1Ev	CGxPZxZero()
0x11cbad	60	_ZN10CGxPZxZeroC2Ev	CGxPZxZero()
0x11cbe9	28	_ZN12CGxReferenceC2Ev	CGxReference()
0x11cc05	28	_ZN12CGxReferenceC1Ev	CGxReference()
0x11cc21	28	_ZN12CGxReference10ReleaseRefEv	CGxReference::ReleaseRef()
0x11cc3d	2	_ZN12CGxReference11ForceDeleteEv	CGxReference::ForceDelete()
0x11cc41	32	_ZN12CGxReferenceD1Ev	CGxReference()
0x11cc61	32	_ZN12CGxReferenceD2Ev	CGxReference()
0x11cc81	18	_ZN12CGxReferenceD0Ev	CGxReference()
0x11cc95	360	_Z22Screen_RGBBLEND16_Realiiiiji	Screen_RGBBLEND16_Real()
0x11cdfd	52	_ZN9CGxStream4InitEv	CGxStream::Init()
0x11ce31	12	_ZN9CGxStreamC1Ev	CGxStream()
0x11ce3d	12	_ZN9CGxStreamC2Ev	CGxStream()
0x11ce49	24	_ZN9CGxStream6DetachEv	CGxStream::Detach()
0x11ce61	80	_ZN9CGxStream7SeekMemEPvli	CGxStream::SeekMem()
0x11ceb1	24	_ZN9CGxStreamcvPhEv	CGxStream()
0x11cec9	24	_ZN9CGxStreamcvPvEv	CGxStream()
0x11cee1	32	_ZN9CGxStream15GetMemoryBufferEj	CGxStream::GetMemoryBuffer()
0x11cf01	48	_ZN9CGxStream9SeekHFILEEPvli	CGxStream::SeekHFILE()
0x11cf31	8	_ZL11_local_seekPvii	_ZL11_local_seekPvii
0x11cf39	10	_ZN9CGxStream10WriteHFILEEPvS0_j	CGxStream::WriteHFILE()
0x11cf45	8	_ZL12_local_writePvPKvj	_ZL12_local_writePvPKvj
0x11cf4d	10	_ZN9CGxStream9ReadHFILEEPvS0_j	CGxStream::ReadHFILE()
0x11cf59	8	_ZL11_local_readPvS_j	_ZL11_local_readPvS_j
0x11cf61	38	_ZN9CGxStream8WriteMemEPvS0_j	CGxStream::WriteMem()
0x11cf89	42	_ZN9CGxStream7ReadMemEPvS0_j	CGxStream::ReadMem()
0x11cfb5	68	_ZN9CGxStream11CloseStreamEv	CGxStream::CloseStream()
0x11cff9	78	_ZN9CGxStream6AttachEPS_	CGxStream::Attach()
0x11d049	20	_ZN9CGxStreamaSERS_	CGxStream()
0x11d05d	22	_ZN9CGxStreamC1EPS_	CGxStream()
0x11d075	22	_ZN9CGxStreamC2EPS_	CGxStream()
0x11d08d	12	_ZN9CGxStreamD1Ev	CGxStream()
0x11d099	12	_ZN9CGxStreamD2Ev	CGxStream()
0x11d0a5	228	_ZN9CGxStream10InitStreamEPvj	CGxStream::InitStream()
0x11d189	26	_ZN9CGxStreamC1EPvj	CGxStream()
0x11d1a5	26	_ZN9CGxStreamC2EPvj	CGxStream()
0x11d1c1	320	_ZN21CGxZeroEffectExPZDMgr17FindEffectedImageEtli	CGxZeroEffectExPZDMgr::FindEffectedImage()
0x11d301	154	_ZN21CGxZeroEffectExPZDMgr21AddNewEFFECTED_BITMAPEtP12CGxPZxBitmapli	CGxZeroEffectExPZDMgr::AddNewEFFECTED_BITMAP()
0x11d39d	38	_ZN21CGxZeroEffectExPZDMgr21DeleteEFFECTED_BITMAPEP17tagEffectedBitmap	CGxZeroEffectExPZDMgr::DeleteEFFECTED_BITMAP()
0x11d3c5	220	_ZN21CGxZeroEffectExPZDMgr9LoadImageEtliPsS0_i	CGxZeroEffectExPZDMgr::LoadImage()
0x11d4a1	40	_ZN21CGxZeroEffectExPZDMgrD1Ev	CGxZeroEffectExPZDMgr()
0x11d4c9	18	_ZN21CGxZeroEffectExPZDMgrD0Ev	CGxZeroEffectExPZDMgr()
0x11d4dd	40	_ZN21CGxZeroEffectExPZDMgrD2Ev	CGxZeroEffectExPZDMgr()
0x11d505	44	_ZN21CGxZeroEffectExPZDMgrC1Eh	CGxZeroEffectExPZDMgr()
0x11d531	44	_ZN21CGxZeroEffectExPZDMgrC2Eh	CGxZeroEffectExPZDMgr()
0x11d55d	44	_ZN21CGxZeroEffectExPZDMgrC1Ev	CGxZeroEffectExPZDMgr()
0x11d589	18	_Z30GXPZDMGR_PM_PARAM_ZEROEFFECTEXv	GXPZDMGR_PM_PARAM_ZEROEFFECTEX()
0x11d59d	44	_ZN21CGxZeroEffectExPZDMgrC2Ev	CGxZeroEffectExPZDMgr()
0x11d5c9	134	_ZN21CGxZeroEffectExPZFMgr12ChangeModuleEiP9CGxPZDMgr	CGxZeroEffectExPZFMgr::ChangeModule()
0x11d651	64	_ZN21CGxZeroEffectExPZFMgr11SetResourceEP14CGxPZxResource	CGxZeroEffectExPZFMgr::SetResource()
0x11d691	78	_ZN21CGxZeroEffectExPZFMgr9SetSourceEPKcjb	CGxZeroEffectExPZFMgr::SetSource()
0x11d6e1	228	_ZN21CGxZeroEffectExPZFMgr9LoadFrameEtP9CGxPZDMgrP9tagEffectPsS4_	CGxZeroEffectExPZFMgr::LoadFrame()
0x11d7c5	40	_ZN21CGxZeroEffectExPZFMgrD1Ev	CGxZeroEffectExPZFMgr()
0x11d7ed	18	_ZN21CGxZeroEffectExPZFMgrD0Ev	CGxZeroEffectExPZFMgr()
0x11d801	40	_ZN21CGxZeroEffectExPZFMgrD2Ev	CGxZeroEffectExPZFMgr()
0x11d829	36	_ZN21CGxZeroEffectExPZFMgrC1Eh	CGxZeroEffectExPZFMgr()
0x11d84d	36	_ZN21CGxZeroEffectExPZFMgrC2Eh	CGxZeroEffectExPZFMgr()
0x11d871	36	_ZN21CGxZeroEffectExPZFMgrC1Ev	CGxZeroEffectExPZFMgr()
0x11d895	18	_Z30GXPZFMGR_PM_PARAM_ZEROEFFECTEXv	GXPZFMGR_PM_PARAM_ZEROEFFECTEX()
0x11d8a9	36	_ZN21CGxZeroEffectExPZFMgrC2Ev	CGxZeroEffectExPZFMgr()
0x11d8cd	224	_ZN19CGxZeroEffectPZDMgr9LoadImageEtliPsS0_i	CGxZeroEffectPZDMgr::LoadImage()
0x11d9ad	74	_ZN19CGxZeroEffectPZDMgr11SetResourceEP14CGxPZxResource	CGxZeroEffectPZDMgr::SetResource()
0x11d9f9	88	_ZN19CGxZeroEffectPZDMgr9SetSourceEPKcjb	CGxZeroEffectPZDMgr::SetSource()
0x11da51	8	_ZN19CGxZeroEffectPZDMgr11ForceDeleteEv	CGxZeroEffectPZDMgr::ForceDelete()
0x11da59	40	_ZN19CGxZeroEffectPZDMgrD1Ev	CGxZeroEffectPZDMgr()
0x11da81	18	_ZN19CGxZeroEffectPZDMgrD0Ev	CGxZeroEffectPZDMgr()
0x11da95	40	_ZN19CGxZeroEffectPZDMgrD2Ev	CGxZeroEffectPZDMgr()
0x11dabd	44	_ZN19CGxZeroEffectPZDMgrC1Eh	CGxZeroEffectPZDMgr()
0x11dae9	44	_ZN19CGxZeroEffectPZDMgrC2Eh	CGxZeroEffectPZDMgr()
0x11db15	44	_ZN19CGxZeroEffectPZDMgrC1Ev	CGxZeroEffectPZDMgr()
0x11db41	18	_Z28GXPZDMGR_PM_PARAM_ZEROEFFECTv	GXPZDMGR_PM_PARAM_ZEROEFFECT()
0x11db55	44	_ZN19CGxZeroEffectPZDMgrC2Ev	CGxZeroEffectPZDMgr()
0x11db81	114	_ZN19CGxZeroEffectPZFMgr12ChangeModuleEiP9CGxPZDMgr	CGxZeroEffectPZFMgr::ChangeModule()
0x11dbf5	64	_ZN19CGxZeroEffectPZFMgr11SetResourceEP14CGxPZxResource	CGxZeroEffectPZFMgr::SetResource()
0x11dc35	78	_ZN19CGxZeroEffectPZFMgr9SetSourceEPKcjb	CGxZeroEffectPZFMgr::SetSource()
0x11dc85	212	_ZN19CGxZeroEffectPZFMgr9LoadFrameEtP9CGxPZDMgrP9tagEffectPsS4_	CGxZeroEffectPZFMgr::LoadFrame()
0x11dd59	40	_ZN19CGxZeroEffectPZFMgrD1Ev	CGxZeroEffectPZFMgr()
0x11dd81	18	_ZN19CGxZeroEffectPZFMgrD0Ev	CGxZeroEffectPZFMgr()
0x11dd95	40	_ZN19CGxZeroEffectPZFMgrD2Ev	CGxZeroEffectPZFMgr()
0x11ddbd	36	_ZN19CGxZeroEffectPZFMgrC1Eh	CGxZeroEffectPZFMgr()
0x11dde1	36	_ZN19CGxZeroEffectPZFMgrC2Eh	CGxZeroEffectPZFMgr()
0x11de05	36	_ZN19CGxZeroEffectPZFMgrC1Ev	CGxZeroEffectPZFMgr()
0x11de29	18	_Z28GXPZFMGR_PM_PARAM_ZEROEFFECTv	GXPZFMGR_PM_PARAM_ZEROEFFECT()
0x11de3d	36	_ZN19CGxZeroEffectPZFMgrC2Ev	CGxZeroEffectPZFMgr()
0x11de61	18	list_size	list_size
0x11de75	46	list_element	list_element
0x11dea5	34	list_delete	list_delete
0x11dec9	36	list_insert	list_insert
0x11deed	34	list_append	list_append
0x11df11	32	list_indexof	list_indexof
0x11df31	32	dump_list	dump_list
0x11df51	20	list_new_element	list_new_element
0x11df65	1106	_ZL10huft_buildPjjjPKjS1_PP14inflate_huft_sS_S3_S_S_	_ZL10huft_buildPjjjPKjS1_PP14inflate_huft_sS_S3_S_S_
0x11e3b9	44	_Z19inflate_trees_fixedPjS_PPK14inflate_huft_sS3_P10z_stream_s	inflate_trees_fixed()
0x11e3e5	812	_Z12inflate_fastjjPK14inflate_huft_sS1_P20inflate_blocks_stateP10z_stream_s	inflate_fast()
0x11e711	216	_Z13inflate_flushP20inflate_blocks_stateP10z_stream_si	inflate_flush()
0x11e7e9	1362	_Z13inflate_codesP20inflate_blocks_stateP10z_stream_si	inflate_codes()
0x11ed3d	36	_Z17inflate_codes_newjjPK14inflate_huft_sS1_P10z_stream_s	inflate_codes_new()
0x11ed61	78	_Z20inflate_blocks_resetP20inflate_blocks_stateP10z_stream_sPm	inflate_blocks_reset()
0x11edb1	38	_Z12inflateResetP10z_stream_s	inflateReset()
0x11edd9	32	_Z19inflate_blocks_freeP20inflate_blocks_stateP10z_stream_s	inflate_blocks_free()
0x11edf9	50	_Z10inflateEndP10z_stream_s	inflateEnd()
0x11ee2d	90	_Z18inflate_blocks_newP10z_stream_sPFmmPKhjEj	inflate_blocks_new()
0x11ee89	80	_Z11inflateInitP10z_stream_si	inflateInit()
0x11eed9	220	_Z21inflate_trees_dynamicjjPjS_S_PP14inflate_huft_sS2_S1_P10z_stream_s	inflate_trees_dynamic()
0x11efb5	104	_Z18inflate_trees_bitsPjS_PP14inflate_huft_sS1_P10z_stream_s	inflate_trees_bits()
0x11f01d	1482	_Z14inflate_blocksP20inflate_blocks_stateP10z_stream_si	inflate_blocks()
0x11f5e9	492	_Z7inflateP10z_stream_si	inflate()
0x11f7d5	4	_ZN12CGxEffectPZD21SetEffectPaletteClassEP6CGxMPL	CGxEffectPZD::SetEffectPaletteClass()
0x11f7d9	208	_ZN12CGxEffectPZD11ApplyEffectEP10CGxPZxDIB8tP9tagEffectPsS4_i	CGxEffectPZD::ApplyEffect()
0x11f8a9	208	_ZN12CGxEffectPZD11ApplyEffectEP11CGxPZxDIB16tP9tagEffectPsS4_i	CGxEffectPZD::ApplyEffect()
0x11f979	166	_ZN12CGxEffectPZD19DoEffect_FLIP_UD_16EP11CGxPZxDIB16t13tagEffectTypeP6CGxMPLPsS5_	CGxEffectPZD::DoEffect_FLIP_UD_16()
0x11fa21	162	_ZN12CGxEffectPZD19DoEffect_FLIP_LR_16EP11CGxPZxDIB16t13tagEffectTypeP6CGxMPLPsS5_	CGxEffectPZD::DoEffect_FLIP_LR_16()
0x11fac5	248	_ZN12CGxEffectPZD22DoEffect_ChangePaletteEP10CGxPZxDIB8t13tagEffectTypeP6CGxMPLPsS5_	CGxEffectPZD::DoEffect_ChangePalette()
0x11fbbd	154	_ZN12CGxEffectPZD16DoEffect_FLIP_UDEP10CGxPZxDIB8t13tagEffectTypeP6CGxMPLPsS5_	CGxEffectPZD::DoEffect_FLIP_UD()
0x11fc59	146	_ZN12CGxEffectPZD16DoEffect_FLIP_LREP10CGxPZxDIB8t13tagEffectTypeP6CGxMPLPsS5_	CGxEffectPZD::DoEffect_FLIP_LR()
0x11fced	284	_ZN12CGxEffectPZD21DoEffect_ROTATE_CCW90EP10CGxPZxDIB8t13tagEffectTypeP6CGxMPLPsS5_	CGxEffectPZD::DoEffect_ROTATE_CCW90()
0x11fe09	296	_ZN12CGxEffectPZD20DoEffect_ROTATE_CW90EP10CGxPZxDIB8t13tagEffectTypeP6CGxMPLPsS5_	CGxEffectPZD::DoEffect_ROTATE_CW90()
0x11ff31	252	_ZN12CGxEffectPZD9GetBitmapEiP9tagEffectPsS2_i	CGxEffectPZD::GetBitmap()
0x12002d	128	_ZN12CGxEffectPZD13SetMPLPaletteEi	CGxEffectPZD::SetMPLPalette()
0x1200ad	32	_ZN12CGxEffectPZDD1Ev	CGxEffectPZD()
0x1200cd	18	_ZN12CGxEffectPZDD0Ev	CGxEffectPZD()
0x1200e1	32	_ZN12CGxEffectPZDD2Ev	CGxEffectPZD()
0x120101	84	_ZN12CGxEffectPZDC1Ev	CGxEffectPZD()
0x120155	84	_ZN12CGxEffectPZDC2Ev	CGxEffectPZD()
0x1201a9	86	_ZN13CGxPZDPackage7OpenAllEv	CGxPZDPackage::OpenAll()
0x120201	68	_ZN13CGxPZDPackage8CloseAllEv	CGxPZDPackage::CloseAll()
0x120245	78	_ZN15CGxPointerArrayI9CGxPZDMgrE7DestroyEv	CGxPointerArray()
0x120295	68	_ZN15CGxPointerArrayI9CGxPZDMgrE6ResizeEi	CGxPointerArray()
0x1202d9	70	_ZN13CGxPZDPackage3AddEP9CGxPZDMgr	CGxPZDPackage::Add()
0x120321	98	_ZN13CGxPZDPackage11ForceDeleteEv	CGxPZDPackage::ForceDelete()
0x120385	40	_ZN13CGxPZDPackageD1Ev	CGxPZDPackage()
0x1203ad	18	_ZN13CGxPZDPackageD0Ev	CGxPZDPackage()
0x1203c1	40	_ZN13CGxPZDPackageD2Ev	CGxPZDPackage()
0x1203e9	36	_ZN13CGxPZDPackageC1Ev	CGxPZDPackage()
0x12040d	36	_ZN13CGxPZDPackageC2Ev	CGxPZDPackage()
0x120431	42	_ZN18CGxZeroEffectExPZF12CreateParserEv	CGxZeroEffectExPZF::CreateParser()
0x12045d	32	_ZN18CGxZeroEffectExPZFD1Ev	CGxZeroEffectExPZF()
0x12047d	18	_ZN18CGxZeroEffectExPZFD0Ev	CGxZeroEffectExPZF()
0x120491	32	_ZN18CGxZeroEffectExPZFD2Ev	CGxZeroEffectExPZF()
0x1204b1	32	_ZN18CGxZeroEffectExPZFC1Ev	CGxZeroEffectExPZF()
0x1204d1	32	_ZN18CGxZeroEffectExPZFC2Ev	CGxZeroEffectExPZF()
0x1204f1	38	_ZN24CGxZeroEffectExPZFParser8NewFrameEb	CGxZeroEffectExPZFParser::NewFrame()
0x120519	32	_ZN24CGxZeroEffectExPZFParserD1Ev	CGxZeroEffectExPZFParser()
0x120539	18	_ZN24CGxZeroEffectExPZFParserD0Ev	CGxZeroEffectExPZFParser()
0x12054d	32	_ZN24CGxZeroEffectExPZFParserD2Ev	CGxZeroEffectExPZFParser()
0x12056d	36	_ZN24CGxZeroEffectExPZFParserC1Ev	CGxZeroEffectExPZFParser()
0x120591	36	_ZN24CGxZeroEffectExPZFParserC2Ev	CGxZeroEffectExPZFParser()
0x1205b5	4	_ZN16CGxZeroEffectPZD21SetEffectPaletteClassEP6CGxMPL	CGxZeroEffectPZD::SetEffectPaletteClass()
0x1205b9	248	_ZN16CGxZeroEffectPZD11ApplyEffectEP10CGxPZxZerotP9tagEffectPsS4_i	CGxZeroEffectPZD::ApplyEffect()
0x1206b1	332	_ZN16CGxZeroEffectPZD19DoEffect_FLIP_UD_ExEP10CGxPZxZerot13tagEffectTypeP6CGxMPLPsS5_	CGxZeroEffectPZD::DoEffect_FLIP_UD_Ex()
0x1207fd	316	_ZN16CGxZeroEffectPZD19DoEffect_FLIP_UD_16EP10CGxPZxZerot13tagEffectTypeP6CGxMPLPsS5_	CGxZeroEffectPZD::DoEffect_FLIP_UD_16()
0x120939	356	_ZN16CGxZeroEffectPZD16DoEffect_FLIP_UDEP10CGxPZxZerot13tagEffectTypeP6CGxMPLPsS5_	CGxZeroEffectPZD::DoEffect_FLIP_UD()
0x120a9d	528	_ZN16CGxZeroEffectPZD19DoEffect_FLIP_LR_ExEP10CGxPZxZerot13tagEffectTypeP6CGxMPLPsS5_	CGxZeroEffectPZD::DoEffect_FLIP_LR_Ex()
0x120cad	448	_ZN16CGxZeroEffectPZD19DoEffect_FLIP_LR_16EP10CGxPZxZerot13tagEffectTypeP6CGxMPLPsS5_	CGxZeroEffectPZD::DoEffect_FLIP_LR_16()
0x120e6d	552	_ZN16CGxZeroEffectPZD16DoEffect_FLIP_LREP10CGxPZxZerot13tagEffectTypeP6CGxMPLPsS5_	CGxZeroEffectPZD::DoEffect_FLIP_LR()
0x121095	130	_ZN16CGxZeroEffectPZD13SetMPLPaletteEi	CGxZeroEffectPZD::SetMPLPalette()
0x121119	158	_ZN16CGxZeroEffectPZD26DoEffect_ChangeZeroPaletteEP10CGxPZxZerot13tagEffectTypeP6CGxMPLPsS5_	CGxZeroEffectPZD::DoEffect_ChangeZeroPalette()
0x1211b9	160	_ZN16CGxZeroEffectPZD9GetBitmapEiP9tagEffectPsS2_i	CGxZeroEffectPZD::GetBitmap()
0x121259	44	_ZN16CGxZeroEffectPZD5CloseEv	CGxZeroEffectPZD::Close()
0x121285	36	_ZN16CGxZeroEffectPZD4OpenEv	CGxZeroEffectPZD::Open()
0x1212a9	32	_ZN16CGxZeroEffectPZDD1Ev	CGxZeroEffectPZD()
0x1212c9	18	_ZN16CGxZeroEffectPZDD0Ev	CGxZeroEffectPZD()
0x1212dd	32	_ZN16CGxZeroEffectPZDD2Ev	CGxZeroEffectPZD()
0x1212fd	80	_ZN16CGxZeroEffectPZDC1Ev	CGxZeroEffectPZD()
0x12134d	80	_ZN16CGxZeroEffectPZDC2Ev	CGxZeroEffectPZD()
0x12139d	184	_ZN10CGxZeroPZD9GetBitmapEiP9tagEffectPsS2_i	CGxZeroPZD::GetBitmap()
0x121455	110	_ZN10CGxZeroPZD12SetPalette16Eihb	CGxZeroPZD::SetPalette16()
0x1214c5	112	_ZN10CGxZeroPZD4OpenEv	CGxZeroPZD::Open()
0x121535	42	_ZN10CGxZeroPZD12CreateParserEv	CGxZeroPZD::CreateParser()
0x121561	72	_ZN10CGxZeroPZDD1Ev	CGxZeroPZD()
0x1215a9	18	_ZN10CGxZeroPZDD0Ev	CGxZeroPZD()
0x1215bd	72	_ZN10CGxZeroPZDD2Ev	CGxZeroPZD()
0x121605	40	_ZN10CGxZeroPZDC1Ev	CGxZeroPZD()
0x12162d	40	_ZN10CGxZeroPZDC2Ev	CGxZeroPZD()
0x121655	110	_ZN16CGxZeroPZDParser5CloseEv	CGxZeroPZDParser::Close()
0x1216c5	48	_ZN16CGxZeroPZDParser12DecodeHeaderEb	CGxZeroPZDParser::DecodeHeader()
0x1216f5	32	_ZN16CGxZeroPZDParserD1Ev	CGxZeroPZDParser()
0x121715	18	_ZN16CGxZeroPZDParserD0Ev	CGxZeroPZDParser()
0x121729	32	_ZN16CGxZeroPZDParserD2Ev	CGxZeroPZDParser()
0x121749	56	_ZN16CGxZeroPZDParserC1Ev	CGxZeroPZDParser()
0x121781	56	_ZN16CGxZeroPZDParserC2Ev	CGxZeroPZDParser()
0x1217b9	252	_ZN16CGxZeroPZDParser15DecodeImageDataEtP12tagImageInfo	CGxZeroPZDParser::DecodeImageData()
0x1218b5	350	_ZN16CGxZeroPZDParser4OpenEv	CGxZeroPZDParser::Open()
0x121a15	40	_ZN23CGxPZxZeroEffectExFrameD1Ev	CGxPZxZeroEffectExFrame()
0x121a3d	18	_ZN23CGxPZxZeroEffectExFrameD0Ev	CGxPZxZeroEffectExFrame()
0x121a51	40	_ZN23CGxPZxZeroEffectExFrameD2Ev	CGxPZxZeroEffectExFrame()
0x121a79	40	_ZN23CGxPZxZeroEffectExFrameC1Ev	CGxPZxZeroEffectExFrame()
0x121aa1	40	_ZN23CGxPZxZeroEffectExFrameC2Ev	CGxPZxZeroEffectExFrame()
0x121ac9	40	_ZN25CGxPZxZeroEffectExFrameBBD1Ev	CGxPZxZeroEffectExFrameBB()
0x121af1	18	_ZN25CGxPZxZeroEffectExFrameBBD0Ev	CGxPZxZeroEffectExFrameBB()
0x121b05	40	_ZN25CGxPZxZeroEffectExFrameBBD2Ev	CGxPZxZeroEffectExFrameBB()
0x121b2d	40	_ZN25CGxPZxZeroEffectExFrameBBC1Ev	CGxPZxZeroEffectExFrameBB()
0x121b54	0	$t	$t
0x121b55	40	_ZN25CGxPZxZeroEffectExFrameBBC2Ev	CGxPZxZeroEffectExFrameBB()
0x121b7c	172	__udivsi3	__udivsi3
0x121b7c	0	__aeabi_uidiv	__aeabi_uidiv
0x121c28	24	__aeabi_uidivmod	__aeabi_uidivmod
0x121c40	220	__divsi3	__divsi3
0x121c40	0	__aeabi_idiv	__aeabi_idiv
0x121d1c	24	__aeabi_idivmod	__aeabi_idivmod
0x121d34	4	__div0	__div0
0x121d34	4	__aeabi_idiv0	__aeabi_idiv0
0x121d34	4	__aeabi_ldiv0	__aeabi_ldiv0
0x121d38	0	__aeabi_drsub	__aeabi_drsub
0x121d40	688	__subdf3	__subdf3
0x121d40	688	__aeabi_dsub	__aeabi_dsub
0x121d44	684	__adddf3	__adddf3
0x121d44	684	__aeabi_dadd	__aeabi_dadd
0x121ff0	36	__aeabi_ui2d	__aeabi_ui2d
0x121ff0	36	__floatunsidf	__floatunsidf
0x122014	40	__floatsidf	__floatsidf
0x122014	40	__aeabi_i2d	__aeabi_i2d
0x12203c	64	__aeabi_f2d	__aeabi_f2d
0x12203c	64	__extendsfdf2	__extendsfdf2
0x12207c	116	__floatundidf	__floatundidf
0x12207c	116	__aeabi_ul2d	__aeabi_ul2d
0x122090	96	__floatdidf	__floatdidf
0x122090	96	__aeabi_l2d	__aeabi_l2d
0x1220f0	92	__fixdfsi	__fixdfsi
0x1220f0	92	__aeabi_d2iz	__aeabi_d2iz
0x12214c	412	__aeabi_frsub	__aeabi_frsub
0x122154	404	__subsf3	__subsf3
0x122154	404	__aeabi_fsub	__aeabi_fsub
0x122158	400	__aeabi_fadd	__aeabi_fadd
0x122158	400	__addsf3	__addsf3
0x1222e8	40	__aeabi_ui2f	__aeabi_ui2f
0x1222e8	40	__floatunsisf	__floatunsisf
0x1222f0	32	__floatsisf	__floatsisf
0x1222f0	32	__aeabi_i2f	__aeabi_i2f
0x122310	140	__aeabi_ul2f	__aeabi_ul2f
0x122310	140	__floatundisf	__floatundisf
0x122320	124	__aeabi_l2f	__aeabi_l2f
0x122320	124	__floatdisf	__floatdisf
0x12239c	408	__aeabi_fmul	__aeabi_fmul
0x12239c	408	__mulsf3	__mulsf3
0x122534	352	__aeabi_fdiv	__aeabi_fdiv
0x122534	352	__divsf3	__divsf3
0x122694	112	__gesf2	__gesf2
0x122694	112	__gtsf2	__gtsf2
0x12269c	104	__lesf2	__lesf2
0x12269c	104	__ltsf2	__ltsf2
0x1226a4	96	__cmpsf2	__cmpsf2
0x1226a4	96	__eqsf2	__eqsf2
0x1226a4	96	__nesf2	__nesf2
0x122704	36	__aeabi_cfrcmple	__aeabi_cfrcmple
0x122714	20	__aeabi_cfcmple	__aeabi_cfcmple
0x122714	20	__aeabi_cfcmpeq	__aeabi_cfcmpeq
0x122728	20	__aeabi_fcmpeq	__aeabi_fcmpeq
0x12273c	20	__aeabi_fcmplt	__aeabi_fcmplt
0x122750	20	__aeabi_fcmple	__aeabi_fcmple
0x122764	20	__aeabi_fcmpge	__aeabi_fcmpge
0x122778	20	__aeabi_fcmpgt	__aeabi_fcmpgt
0x12278c	92	__fixsfsi	__fixsfsi
0x12278c	92	__aeabi_f2iz	__aeabi_f2iz
0x1227e8	20	__muldi3	__muldi3
0x1227e8	0	__aeabi_lmul	__aeabi_lmul
0x1227fc	0	__aeabi_ldivmod	__aeabi_ldivmod
0x122818	0	__aeabi_uldivmod	__aeabi_uldivmod
0x122834	64	__gnu_uldivmod_helper	__gnu_uldivmod_helper
0x122874	64	__gnu_ldivmod_helper	__gnu_ldivmod_helper
0x1228b4	20	_Unwind_decode_target2	_Unwind_decode_target2
0x1228c8	76	_Unwind_VRS_Get	_Unwind_VRS_Get
0x12293c	76	_Unwind_VRS_Set	_Unwind_VRS_Set
0x122988	44	_Unwind_SetGR	_Unwind_SetGR
0x1229b4	24	selfrel_offset31	selfrel_offset31
0x1229cc	140	search_EIT_table	search_EIT_table
0x122a58	8	_Unwind_GetCFA	_Unwind_GetCFA
0x122a60	4	_Unwind_Complete	_Unwind_Complete
0x122a64	32	_Unwind_DeleteException	_Unwind_DeleteException
0x122a84	944	__gnu_unwind_pr_common	__gnu_unwind_pr_common
0x122e34	8	__aeabi_unwind_cpp_pr2	__aeabi_unwind_cpp_pr2
0x122e3c	8	__aeabi_unwind_cpp_pr1	__aeabi_unwind_cpp_pr1
0x122e44	8	__aeabi_unwind_cpp_pr0	__aeabi_unwind_cpp_pr0
0x122e4c	308	get_eit_entry	get_eit_entry
0x122f80	108	restore_non_core_regs	restore_non_core_regs
0x122fec	200	__gnu_Unwind_Backtrace	__gnu_Unwind_Backtrace
0x1230b4	284	unwind_phase2_forced	unwind_phase2_forced
0x1231d0	28	__gnu_Unwind_ForcedUnwind	__gnu_Unwind_ForcedUnwind
0x1231ec	88	unwind_phase2	unwind_phase2
0x123244	164	__gnu_Unwind_RaiseException	__gnu_Unwind_RaiseException
0x1232e8	32	__gnu_Unwind_Resume_or_Rethrow	__gnu_Unwind_Resume_or_Rethrow
0x123308	108	__gnu_Unwind_Resume	__gnu_Unwind_Resume
0x123374	876	_Unwind_VRS_Pop	_Unwind_VRS_Pop
0x1236e0	20	restore_core_regs	restore_core_regs
0x1236e0	20	__restore_core_regs	__restore_core_regs
0x1236f4	0	__gnu_Unwind_Restore_VFP	__gnu_Unwind_Restore_VFP
0x1236fc	0	__gnu_Unwind_Save_VFP	__gnu_Unwind_Save_VFP
0x123704	0	__gnu_Unwind_Restore_VFP_D	__gnu_Unwind_Restore_VFP_D
0x12370c	0	__gnu_Unwind_Save_VFP_D	__gnu_Unwind_Save_VFP_D
0x123714	0	__gnu_Unwind_Restore_VFP_D_16_to_31	__gnu_Unwind_Restore_VFP_D_16_to_31
0x12371c	0	__gnu_Unwind_Save_VFP_D_16_to_31	__gnu_Unwind_Save_VFP_D_16_to_31
0x123724	0	__gnu_Unwind_Restore_WMMXD	__gnu_Unwind_Restore_WMMXD
0x123768	0	__gnu_Unwind_Save_WMMXD	__gnu_Unwind_Save_WMMXD
0x1237ac	0	__gnu_Unwind_Restore_WMMXC	__gnu_Unwind_Restore_WMMXC
0x1237c0	0	__gnu_Unwind_Save_WMMXC	__gnu_Unwind_Save_WMMXC
0x1237d4	36	_Unwind_RaiseException	_Unwind_RaiseException
0x1237d4	36	___Unwind_RaiseException	___Unwind_RaiseException
0x1237f8	36	_Unwind_Resume	_Unwind_Resume
0x1237f8	36	___Unwind_Resume	___Unwind_Resume
0x12381c	36	___Unwind_Resume_or_Rethrow	___Unwind_Resume_or_Rethrow
0x12381c	36	_Unwind_Resume_or_Rethrow	_Unwind_Resume_or_Rethrow
0x123840	36	___Unwind_ForcedUnwind	___Unwind_ForcedUnwind
0x123840	36	_Unwind_ForcedUnwind	_Unwind_ForcedUnwind
0x123864	36	___Unwind_Backtrace	___Unwind_Backtrace
0x123864	36	_Unwind_Backtrace	_Unwind_Backtrace
0x123888	88	next_unwind_byte	next_unwind_byte
0x1238e0	8	_Unwind_GetTextRelBase	_Unwind_GetTextRelBase
0x1238e8	8	_Unwind_GetDataRelBase	_Unwind_GetDataRelBase
0x1238f0	40	_Unwind_GetGR	_Unwind_GetGR
0x123918	8	unwind_UCB_from_context	unwind_UCB_from_context
0x123920	28	_Unwind_GetLanguageSpecificData	_Unwind_GetLanguageSpecificData
0x12393c	16	_Unwind_GetRegionStart	_Unwind_GetRegionStart
0x12394c	892	__gnu_unwind_execute	__gnu_unwind_execute
0x123cc8	64	__gnu_unwind_frame	__gnu_unwind_frame
0x123d08	1148	__divdi3	__divdi3
0x124184	1036	__udivdi3	__udivdi3
0x13425c	0	__exidx_start	__exidx_start
0x13e244	0	__exidx_end	__exidx_end
0x144400	0	__data_start	__data_start
0x145358	0	__bss_start__	__bss_start__
0x145358	0	__bss_start	__bss_start
0x145358	0	_edata	_edata
0x246800	0	__end__	__end__
0x246800	0	__bss_end__	__bss_end__
0x246800	0	_bss_end__	_bss_end__
0x246800	0	_end	_end
